;***************************************************************
;* TMS320C2000 C/C++ Codegen                   PC v15.12.6.LTS *
;* Date/Time created: Thu Nov 14 09:54:28 2019                 *
;***************************************************************
	.compiler_opts --abi=coffabi --float_support=softlib --hll_source=on --mem_model:code=flat --mem_model:data=large --object_format=coff --quiet --silicon_version=28 --symdebug:dwarf --symdebug:dwarf_version=3 
FP	.set	XAR2

$C$DW$CU	.dwtag  DW_TAG_compile_unit
	.dwattr $C$DW$CU, DW_AT_name("../DSP281x_common/source/DSP281x_DefaultIsr.c")
	.dwattr $C$DW$CU, DW_AT_producer("TI TMS320C2000 C/C++ Codegen PC v15.12.6.LTS Copyright (c) 1996-2017 Texas Instruments Incorporated")
	.dwattr $C$DW$CU, DW_AT_TI_version(0x01)
	.dwattr $C$DW$CU, DW_AT_comp_dir("C:\Users\antons\workspace_v6_1\CANbus\Debug")
;	C:\ti\ccsv6\tools\compiler\ti-cgt-c2000_15.12.6.LTS\bin\opt2000.exe C:\\Users\\antons\\AppData\\Local\\Temp\\{7BCA571A-7906-4855-A73E-DE454545A2D2} C:\\Users\\antons\\AppData\\Local\\Temp\\{CA09B1F8-4267-4132-918A-2F6D49A1482C} 
;	C:\ti\ccsv6\tools\compiler\ti-cgt-c2000_15.12.6.LTS\bin\ac2000.exe -@C:\\Users\\antons\\AppData\\Local\\Temp\\{822F0F88-F9AC-4D77-8774-1F95ADD917D9} 
	.sect	".text:retain"
	.retain
	.retainrefs
	.global	_rsvd_ISR

$C$DW$1	.dwtag  DW_TAG_subprogram
	.dwattr $C$DW$1, DW_AT_name("rsvd_ISR")
	.dwattr $C$DW$1, DW_AT_low_pc(_rsvd_ISR)
	.dwattr $C$DW$1, DW_AT_high_pc(0x00)
	.dwattr $C$DW$1, DW_AT_TI_symbol_name("_rsvd_ISR")
	.dwattr $C$DW$1, DW_AT_external
	.dwattr $C$DW$1, DW_AT_TI_begin_file("../DSP281x_common/source/DSP281x_DefaultIsr.c")
	.dwattr $C$DW$1, DW_AT_TI_begin_line(0x3de)
	.dwattr $C$DW$1, DW_AT_TI_begin_column(0x10)
	.dwattr $C$DW$1, DW_AT_TI_interrupt
	.dwattr $C$DW$1, DW_AT_TI_max_frame_size(-2)
	.dwpsn	file "../DSP281x_common/source/DSP281x_DefaultIsr.c",line 991,column 1,is_stmt,address _rsvd_ISR,isa 0

	.dwfde $C$DW$CIE, _rsvd_ISR
;----------------------------------------------------------------------
; 990 | interrupt void rsvd_ISR(void)      // For test                         
; 992 | asm ("      ESTOP0");                                                  
;----------------------------------------------------------------------

;***************************************************************
;* FNAME: _rsvd_ISR                     FR SIZE:   0           *
;*                                                             *
;* FUNCTION ENVIRONMENT                                        *
;*                                                             *
;* FUNCTION PROPERTIES                                         *
;*                            0 Parameter,  0 Auto,  0 SOE     *
;***************************************************************

_rsvd_ISR:
	.dwcfi	cfa_offset, -2
	.dwcfi	save_reg_to_mem, 26, 0
        ASP       ; [CPU_] 
        CLRC      PAGE0,OVM             ; [CPU_] 
        CLRC      AMODE                 ; [CPU_] 
      ESTOP0
$C$L1:    
	.dwpsn	file "../DSP281x_common/source/DSP281x_DefaultIsr.c",line 993,column 3,is_stmt,isa 0
;----------------------------------------------------------------------
; 993 | for(;;);                                                               
;----------------------------------------------------------------------
        B         $C$L1,UNC             ; [CPU_] |993| 
        ; branch occurs ; [] |993| 
	.dwattr $C$DW$1, DW_AT_TI_end_file("../DSP281x_common/source/DSP281x_DefaultIsr.c")
	.dwattr $C$DW$1, DW_AT_TI_end_line(0x3e2)
	.dwattr $C$DW$1, DW_AT_TI_end_column(0x01)
	.dwendentry
	.dwendtag $C$DW$1

	.sect	".text:retain"
	.retain
	.retainrefs
	.global	_XINT2_ISR

$C$DW$2	.dwtag  DW_TAG_subprogram
	.dwattr $C$DW$2, DW_AT_name("XINT2_ISR")
	.dwattr $C$DW$2, DW_AT_low_pc(_XINT2_ISR)
	.dwattr $C$DW$2, DW_AT_high_pc(0x00)
	.dwattr $C$DW$2, DW_AT_TI_symbol_name("_XINT2_ISR")
	.dwattr $C$DW$2, DW_AT_external
	.dwattr $C$DW$2, DW_AT_TI_begin_file("../DSP281x_common/source/DSP281x_DefaultIsr.c")
	.dwattr $C$DW$2, DW_AT_TI_begin_line(0x10a)
	.dwattr $C$DW$2, DW_AT_TI_begin_column(0x11)
	.dwattr $C$DW$2, DW_AT_TI_interrupt
	.dwattr $C$DW$2, DW_AT_TI_max_frame_size(-2)
	.dwpsn	file "../DSP281x_common/source/DSP281x_DefaultIsr.c",line 267,column 1,is_stmt,address _XINT2_ISR,isa 0

	.dwfde $C$DW$CIE, _XINT2_ISR
;----------------------------------------------------------------------
; 266 | interrupt void  XINT2_ISR(void)                                        
; 268 | // Insert ISR Code here                                                
; 270 | // To receive more interrupts from this PIE group, acknowledge this int
;     | errupt                                                                 
; 271 | // PieCtrlRegs.PIEACK.all = PIEACK_GROUP1;                             
; 273 | // Next two lines for debug only to halt the processor here            
; 274 | // Remove after inserting ISR Code                                     
; 275 |  asm ("      ESTOP0");                                                 
;----------------------------------------------------------------------

;***************************************************************
;* FNAME: _XINT2_ISR                    FR SIZE:   0           *
;*                                                             *
;* FUNCTION ENVIRONMENT                                        *
;*                                                             *
;* FUNCTION PROPERTIES                                         *
;*                            0 Parameter,  0 Auto,  0 SOE     *
;***************************************************************

_XINT2_ISR:
	.dwcfi	cfa_offset, -2
	.dwcfi	save_reg_to_mem, 26, 0
        ASP       ; [CPU_] 
        CLRC      PAGE0,OVM             ; [CPU_] 
        CLRC      AMODE                 ; [CPU_] 
      ESTOP0
$C$L2:    
	.dwpsn	file "../DSP281x_common/source/DSP281x_DefaultIsr.c",line 276,column 4,is_stmt,isa 0
;----------------------------------------------------------------------
; 276 | for(;;);                                                               
;----------------------------------------------------------------------
        B         $C$L2,UNC             ; [CPU_] |276| 
        ; branch occurs ; [] |276| 
	.dwattr $C$DW$2, DW_AT_TI_end_file("../DSP281x_common/source/DSP281x_DefaultIsr.c")
	.dwattr $C$DW$2, DW_AT_TI_end_line(0x116)
	.dwattr $C$DW$2, DW_AT_TI_end_column(0x01)
	.dwendentry
	.dwendtag $C$DW$2

	.sect	".text:retain"
	.retain
	.retainrefs
	.global	_XINT1_ISR

$C$DW$3	.dwtag  DW_TAG_subprogram
	.dwattr $C$DW$3, DW_AT_name("XINT1_ISR")
	.dwattr $C$DW$3, DW_AT_low_pc(_XINT1_ISR)
	.dwattr $C$DW$3, DW_AT_high_pc(0x00)
	.dwattr $C$DW$3, DW_AT_TI_symbol_name("_XINT1_ISR")
	.dwattr $C$DW$3, DW_AT_external
	.dwattr $C$DW$3, DW_AT_TI_begin_file("../DSP281x_common/source/DSP281x_DefaultIsr.c")
	.dwattr $C$DW$3, DW_AT_TI_begin_line(0xfb)
	.dwattr $C$DW$3, DW_AT_TI_begin_column(0x11)
	.dwattr $C$DW$3, DW_AT_TI_interrupt
	.dwattr $C$DW$3, DW_AT_TI_max_frame_size(-2)
	.dwpsn	file "../DSP281x_common/source/DSP281x_DefaultIsr.c",line 252,column 1,is_stmt,address _XINT1_ISR,isa 0

	.dwfde $C$DW$CIE, _XINT1_ISR
;----------------------------------------------------------------------
; 251 | interrupt void  XINT1_ISR(void)                                        
; 253 | // Insert ISR Code here                                                
; 255 | // To receive more interrupts from this PIE group, acknowledge this int
;     | errupt                                                                 
; 256 | // PieCtrlRegs.PIEACK.all = PIEACK_GROUP1;                             
; 258 | // Next two lines for debug only to halt the processor here            
; 259 | // Remove after inserting ISR Code                                     
; 260 |  asm ("      ESTOP0");                                                 
;----------------------------------------------------------------------

;***************************************************************
;* FNAME: _XINT1_ISR                    FR SIZE:   0           *
;*                                                             *
;* FUNCTION ENVIRONMENT                                        *
;*                                                             *
;* FUNCTION PROPERTIES                                         *
;*                            0 Parameter,  0 Auto,  0 SOE     *
;***************************************************************

_XINT1_ISR:
	.dwcfi	cfa_offset, -2
	.dwcfi	save_reg_to_mem, 26, 0
        ASP       ; [CPU_] 
        CLRC      PAGE0,OVM             ; [CPU_] 
        CLRC      AMODE                 ; [CPU_] 
      ESTOP0
$C$L3:    
	.dwpsn	file "../DSP281x_common/source/DSP281x_DefaultIsr.c",line 261,column 4,is_stmt,isa 0
;----------------------------------------------------------------------
; 261 | for(;;);                                                               
;----------------------------------------------------------------------
        B         $C$L3,UNC             ; [CPU_] |261| 
        ; branch occurs ; [] |261| 
	.dwattr $C$DW$3, DW_AT_TI_end_file("../DSP281x_common/source/DSP281x_DefaultIsr.c")
	.dwattr $C$DW$3, DW_AT_TI_end_line(0x107)
	.dwattr $C$DW$3, DW_AT_TI_end_column(0x01)
	.dwendentry
	.dwendtag $C$DW$3

	.sect	".text:retain"
	.retain
	.retainrefs
	.global	_WAKEINT_ISR

$C$DW$4	.dwtag  DW_TAG_subprogram
	.dwattr $C$DW$4, DW_AT_name("WAKEINT_ISR")
	.dwattr $C$DW$4, DW_AT_low_pc(_WAKEINT_ISR)
	.dwattr $C$DW$4, DW_AT_high_pc(0x00)
	.dwattr $C$DW$4, DW_AT_TI_symbol_name("_WAKEINT_ISR")
	.dwattr $C$DW$4, DW_AT_external
	.dwattr $C$DW$4, DW_AT_TI_begin_file("../DSP281x_common/source/DSP281x_DefaultIsr.c")
	.dwattr $C$DW$4, DW_AT_TI_begin_line(0x136)
	.dwattr $C$DW$4, DW_AT_TI_begin_column(0x11)
	.dwattr $C$DW$4, DW_AT_TI_interrupt
	.dwattr $C$DW$4, DW_AT_TI_max_frame_size(-2)
	.dwpsn	file "../DSP281x_common/source/DSP281x_DefaultIsr.c",line 311,column 1,is_stmt,address _WAKEINT_ISR,isa 0

	.dwfde $C$DW$CIE, _WAKEINT_ISR
;----------------------------------------------------------------------
; 310 | interrupt void  WAKEINT_ISR(void)    // WD                             
; 312 | // Insert ISR Code here                                                
; 314 | // To receive more interrupts from this PIE group, acknowledge this int
;     | errupt                                                                 
; 315 | // PieCtrlRegs.PIEACK.all = PIEACK_GROUP1;                             
; 317 | // Next two lines for debug only to halt the processor here            
; 318 | // Remove after inserting ISR Code                                     
; 319 |  asm ("      ESTOP0");                                                 
;----------------------------------------------------------------------

;***************************************************************
;* FNAME: _WAKEINT_ISR                  FR SIZE:   0           *
;*                                                             *
;* FUNCTION ENVIRONMENT                                        *
;*                                                             *
;* FUNCTION PROPERTIES                                         *
;*                            0 Parameter,  0 Auto,  0 SOE     *
;***************************************************************

_WAKEINT_ISR:
	.dwcfi	cfa_offset, -2
	.dwcfi	save_reg_to_mem, 26, 0
        ASP       ; [CPU_] 
        CLRC      PAGE0,OVM             ; [CPU_] 
        CLRC      AMODE                 ; [CPU_] 
      ESTOP0
$C$L4:    
	.dwpsn	file "../DSP281x_common/source/DSP281x_DefaultIsr.c",line 320,column 4,is_stmt,isa 0
;----------------------------------------------------------------------
; 320 | for(;;);                                                               
;----------------------------------------------------------------------
        B         $C$L4,UNC             ; [CPU_] |320| 
        ; branch occurs ; [] |320| 
	.dwattr $C$DW$4, DW_AT_TI_end_file("../DSP281x_common/source/DSP281x_DefaultIsr.c")
	.dwattr $C$DW$4, DW_AT_TI_end_line(0x141)
	.dwattr $C$DW$4, DW_AT_TI_end_column(0x01)
	.dwendentry
	.dwendtag $C$DW$4

	.sect	".text:retain"
	.retain
	.retainrefs
	.global	_USER9_ISR

$C$DW$5	.dwtag  DW_TAG_subprogram
	.dwattr $C$DW$5, DW_AT_name("USER9_ISR")
	.dwattr $C$DW$5, DW_AT_low_pc(_USER9_ISR)
	.dwattr $C$DW$5, DW_AT_high_pc(0x00)
	.dwattr $C$DW$5, DW_AT_TI_symbol_name("_USER9_ISR")
	.dwattr $C$DW$5, DW_AT_external
	.dwattr $C$DW$5, DW_AT_TI_begin_file("../DSP281x_common/source/DSP281x_DefaultIsr.c")
	.dwattr $C$DW$5, DW_AT_TI_begin_line(0xaf)
	.dwattr $C$DW$5, DW_AT_TI_begin_column(0x10)
	.dwattr $C$DW$5, DW_AT_TI_interrupt
	.dwattr $C$DW$5, DW_AT_TI_max_frame_size(-2)
	.dwpsn	file "../DSP281x_common/source/DSP281x_DefaultIsr.c",line 176,column 1,is_stmt,address _USER9_ISR,isa 0

	.dwfde $C$DW$CIE, _USER9_ISR
;----------------------------------------------------------------------
; 175 | interrupt void USER9_ISR(void)     // User Defined trap 9              
; 177 | // Insert ISR Code here                                                
; 179 | // Next two lines for debug only to halt the processor here            
; 180 | // Remove after inserting ISR Code                                     
; 181 |  asm ("      ESTOP0");                                                 
;----------------------------------------------------------------------

;***************************************************************
;* FNAME: _USER9_ISR                    FR SIZE:   0           *
;*                                                             *
;* FUNCTION ENVIRONMENT                                        *
;*                                                             *
;* FUNCTION PROPERTIES                                         *
;*                            0 Parameter,  0 Auto,  0 SOE     *
;***************************************************************

_USER9_ISR:
	.dwcfi	cfa_offset, -2
	.dwcfi	save_reg_to_mem, 26, 0
        ASP       ; [CPU_] 
        CLRC      PAGE0,OVM             ; [CPU_] 
        CLRC      AMODE                 ; [CPU_] 
      ESTOP0
$C$L5:    
	.dwpsn	file "../DSP281x_common/source/DSP281x_DefaultIsr.c",line 182,column 4,is_stmt,isa 0
;----------------------------------------------------------------------
; 182 | for(;;);                                                               
;----------------------------------------------------------------------
        B         $C$L5,UNC             ; [CPU_] |182| 
        ; branch occurs ; [] |182| 
	.dwattr $C$DW$5, DW_AT_TI_end_file("../DSP281x_common/source/DSP281x_DefaultIsr.c")
	.dwattr $C$DW$5, DW_AT_TI_end_line(0xb7)
	.dwattr $C$DW$5, DW_AT_TI_end_column(0x01)
	.dwendentry
	.dwendtag $C$DW$5

	.sect	".text:retain"
	.retain
	.retainrefs
	.global	_USER8_ISR

$C$DW$6	.dwtag  DW_TAG_subprogram
	.dwattr $C$DW$6, DW_AT_name("USER8_ISR")
	.dwattr $C$DW$6, DW_AT_low_pc(_USER8_ISR)
	.dwattr $C$DW$6, DW_AT_high_pc(0x00)
	.dwattr $C$DW$6, DW_AT_TI_symbol_name("_USER8_ISR")
	.dwattr $C$DW$6, DW_AT_external
	.dwattr $C$DW$6, DW_AT_TI_begin_file("../DSP281x_common/source/DSP281x_DefaultIsr.c")
	.dwattr $C$DW$6, DW_AT_TI_begin_line(0xa5)
	.dwattr $C$DW$6, DW_AT_TI_begin_column(0x10)
	.dwattr $C$DW$6, DW_AT_TI_interrupt
	.dwattr $C$DW$6, DW_AT_TI_max_frame_size(-2)
	.dwpsn	file "../DSP281x_common/source/DSP281x_DefaultIsr.c",line 166,column 1,is_stmt,address _USER8_ISR,isa 0

	.dwfde $C$DW$CIE, _USER8_ISR
;----------------------------------------------------------------------
; 165 | interrupt void USER8_ISR(void)     // User Defined trap 8              
; 167 | // Insert ISR Code here                                                
; 169 | // Next two lines for debug only to halt the processor here            
; 170 | // Remove after inserting ISR Code                                     
; 171 |  asm ("      ESTOP0");                                                 
;----------------------------------------------------------------------

;***************************************************************
;* FNAME: _USER8_ISR                    FR SIZE:   0           *
;*                                                             *
;* FUNCTION ENVIRONMENT                                        *
;*                                                             *
;* FUNCTION PROPERTIES                                         *
;*                            0 Parameter,  0 Auto,  0 SOE     *
;***************************************************************

_USER8_ISR:
	.dwcfi	cfa_offset, -2
	.dwcfi	save_reg_to_mem, 26, 0
        ASP       ; [CPU_] 
        CLRC      PAGE0,OVM             ; [CPU_] 
        CLRC      AMODE                 ; [CPU_] 
      ESTOP0
$C$L6:    
	.dwpsn	file "../DSP281x_common/source/DSP281x_DefaultIsr.c",line 172,column 4,is_stmt,isa 0
;----------------------------------------------------------------------
; 172 | for(;;);                                                               
;----------------------------------------------------------------------
        B         $C$L6,UNC             ; [CPU_] |172| 
        ; branch occurs ; [] |172| 
	.dwattr $C$DW$6, DW_AT_TI_end_file("../DSP281x_common/source/DSP281x_DefaultIsr.c")
	.dwattr $C$DW$6, DW_AT_TI_end_line(0xad)
	.dwattr $C$DW$6, DW_AT_TI_end_column(0x01)
	.dwendentry
	.dwendtag $C$DW$6

	.sect	".text:retain"
	.retain
	.retainrefs
	.global	_USER7_ISR

$C$DW$7	.dwtag  DW_TAG_subprogram
	.dwattr $C$DW$7, DW_AT_name("USER7_ISR")
	.dwattr $C$DW$7, DW_AT_low_pc(_USER7_ISR)
	.dwattr $C$DW$7, DW_AT_high_pc(0x00)
	.dwattr $C$DW$7, DW_AT_TI_symbol_name("_USER7_ISR")
	.dwattr $C$DW$7, DW_AT_external
	.dwattr $C$DW$7, DW_AT_TI_begin_file("../DSP281x_common/source/DSP281x_DefaultIsr.c")
	.dwattr $C$DW$7, DW_AT_TI_begin_line(0x9b)
	.dwattr $C$DW$7, DW_AT_TI_begin_column(0x10)
	.dwattr $C$DW$7, DW_AT_TI_interrupt
	.dwattr $C$DW$7, DW_AT_TI_max_frame_size(-2)
	.dwpsn	file "../DSP281x_common/source/DSP281x_DefaultIsr.c",line 156,column 1,is_stmt,address _USER7_ISR,isa 0

	.dwfde $C$DW$CIE, _USER7_ISR
;----------------------------------------------------------------------
; 155 | interrupt void USER7_ISR(void)     // User Defined trap 7              
; 157 | // Insert ISR Code here                                                
; 159 | // Next two lines for debug only to halt the processor here            
; 160 | // Remove after inserting ISR Code                                     
; 161 |  asm ("      ESTOP0");                                                 
;----------------------------------------------------------------------

;***************************************************************
;* FNAME: _USER7_ISR                    FR SIZE:   0           *
;*                                                             *
;* FUNCTION ENVIRONMENT                                        *
;*                                                             *
;* FUNCTION PROPERTIES                                         *
;*                            0 Parameter,  0 Auto,  0 SOE     *
;***************************************************************

_USER7_ISR:
	.dwcfi	cfa_offset, -2
	.dwcfi	save_reg_to_mem, 26, 0
        ASP       ; [CPU_] 
        CLRC      PAGE0,OVM             ; [CPU_] 
        CLRC      AMODE                 ; [CPU_] 
      ESTOP0
$C$L7:    
	.dwpsn	file "../DSP281x_common/source/DSP281x_DefaultIsr.c",line 162,column 4,is_stmt,isa 0
;----------------------------------------------------------------------
; 162 | for(;;);                                                               
;----------------------------------------------------------------------
        B         $C$L7,UNC             ; [CPU_] |162| 
        ; branch occurs ; [] |162| 
	.dwattr $C$DW$7, DW_AT_TI_end_file("../DSP281x_common/source/DSP281x_DefaultIsr.c")
	.dwattr $C$DW$7, DW_AT_TI_end_line(0xa3)
	.dwattr $C$DW$7, DW_AT_TI_end_column(0x01)
	.dwendentry
	.dwendtag $C$DW$7

	.sect	".text:retain"
	.retain
	.retainrefs
	.global	_USER6_ISR

$C$DW$8	.dwtag  DW_TAG_subprogram
	.dwattr $C$DW$8, DW_AT_name("USER6_ISR")
	.dwattr $C$DW$8, DW_AT_low_pc(_USER6_ISR)
	.dwattr $C$DW$8, DW_AT_high_pc(0x00)
	.dwattr $C$DW$8, DW_AT_TI_symbol_name("_USER6_ISR")
	.dwattr $C$DW$8, DW_AT_external
	.dwattr $C$DW$8, DW_AT_TI_begin_file("../DSP281x_common/source/DSP281x_DefaultIsr.c")
	.dwattr $C$DW$8, DW_AT_TI_begin_line(0x91)
	.dwattr $C$DW$8, DW_AT_TI_begin_column(0x10)
	.dwattr $C$DW$8, DW_AT_TI_interrupt
	.dwattr $C$DW$8, DW_AT_TI_max_frame_size(-2)
	.dwpsn	file "../DSP281x_common/source/DSP281x_DefaultIsr.c",line 146,column 1,is_stmt,address _USER6_ISR,isa 0

	.dwfde $C$DW$CIE, _USER6_ISR
;----------------------------------------------------------------------
; 145 | interrupt void USER6_ISR(void)     // User Defined trap 6              
; 147 | // Insert ISR Code here                                                
; 149 | // Next two lines for debug only to halt the processor here            
; 150 | // Remove after inserting ISR Code                                     
; 151 |  asm ("      ESTOP0");                                                 
;----------------------------------------------------------------------

;***************************************************************
;* FNAME: _USER6_ISR                    FR SIZE:   0           *
;*                                                             *
;* FUNCTION ENVIRONMENT                                        *
;*                                                             *
;* FUNCTION PROPERTIES                                         *
;*                            0 Parameter,  0 Auto,  0 SOE     *
;***************************************************************

_USER6_ISR:
	.dwcfi	cfa_offset, -2
	.dwcfi	save_reg_to_mem, 26, 0
        ASP       ; [CPU_] 
        CLRC      PAGE0,OVM             ; [CPU_] 
        CLRC      AMODE                 ; [CPU_] 
      ESTOP0
$C$L8:    
	.dwpsn	file "../DSP281x_common/source/DSP281x_DefaultIsr.c",line 152,column 4,is_stmt,isa 0
;----------------------------------------------------------------------
; 152 | for(;;);                                                               
;----------------------------------------------------------------------
        B         $C$L8,UNC             ; [CPU_] |152| 
        ; branch occurs ; [] |152| 
	.dwattr $C$DW$8, DW_AT_TI_end_file("../DSP281x_common/source/DSP281x_DefaultIsr.c")
	.dwattr $C$DW$8, DW_AT_TI_end_line(0x99)
	.dwattr $C$DW$8, DW_AT_TI_end_column(0x01)
	.dwendentry
	.dwendtag $C$DW$8

	.sect	".text:retain"
	.retain
	.retainrefs
	.global	_USER5_ISR

$C$DW$9	.dwtag  DW_TAG_subprogram
	.dwattr $C$DW$9, DW_AT_name("USER5_ISR")
	.dwattr $C$DW$9, DW_AT_low_pc(_USER5_ISR)
	.dwattr $C$DW$9, DW_AT_high_pc(0x00)
	.dwattr $C$DW$9, DW_AT_TI_symbol_name("_USER5_ISR")
	.dwattr $C$DW$9, DW_AT_external
	.dwattr $C$DW$9, DW_AT_TI_begin_file("../DSP281x_common/source/DSP281x_DefaultIsr.c")
	.dwattr $C$DW$9, DW_AT_TI_begin_line(0x87)
	.dwattr $C$DW$9, DW_AT_TI_begin_column(0x10)
	.dwattr $C$DW$9, DW_AT_TI_interrupt
	.dwattr $C$DW$9, DW_AT_TI_max_frame_size(-2)
	.dwpsn	file "../DSP281x_common/source/DSP281x_DefaultIsr.c",line 136,column 1,is_stmt,address _USER5_ISR,isa 0

	.dwfde $C$DW$CIE, _USER5_ISR
;----------------------------------------------------------------------
; 135 | interrupt void USER5_ISR(void)     // User Defined trap 5              
; 137 | // Insert ISR Code here                                                
; 139 | // Next two lines for debug only to halt the processor here            
; 140 | // Remove after inserting ISR Code                                     
; 141 |  asm ("      ESTOP0");                                                 
;----------------------------------------------------------------------

;***************************************************************
;* FNAME: _USER5_ISR                    FR SIZE:   0           *
;*                                                             *
;* FUNCTION ENVIRONMENT                                        *
;*                                                             *
;* FUNCTION PROPERTIES                                         *
;*                            0 Parameter,  0 Auto,  0 SOE     *
;***************************************************************

_USER5_ISR:
	.dwcfi	cfa_offset, -2
	.dwcfi	save_reg_to_mem, 26, 0
        ASP       ; [CPU_] 
        CLRC      PAGE0,OVM             ; [CPU_] 
        CLRC      AMODE                 ; [CPU_] 
      ESTOP0
$C$L9:    
	.dwpsn	file "../DSP281x_common/source/DSP281x_DefaultIsr.c",line 142,column 4,is_stmt,isa 0
;----------------------------------------------------------------------
; 142 | for(;;);                                                               
;----------------------------------------------------------------------
        B         $C$L9,UNC             ; [CPU_] |142| 
        ; branch occurs ; [] |142| 
	.dwattr $C$DW$9, DW_AT_TI_end_file("../DSP281x_common/source/DSP281x_DefaultIsr.c")
	.dwattr $C$DW$9, DW_AT_TI_end_line(0x8f)
	.dwattr $C$DW$9, DW_AT_TI_end_column(0x01)
	.dwendentry
	.dwendtag $C$DW$9

	.sect	".text:retain"
	.retain
	.retainrefs
	.global	_USER4_ISR

$C$DW$10	.dwtag  DW_TAG_subprogram
	.dwattr $C$DW$10, DW_AT_name("USER4_ISR")
	.dwattr $C$DW$10, DW_AT_low_pc(_USER4_ISR)
	.dwattr $C$DW$10, DW_AT_high_pc(0x00)
	.dwattr $C$DW$10, DW_AT_TI_symbol_name("_USER4_ISR")
	.dwattr $C$DW$10, DW_AT_external
	.dwattr $C$DW$10, DW_AT_TI_begin_file("../DSP281x_common/source/DSP281x_DefaultIsr.c")
	.dwattr $C$DW$10, DW_AT_TI_begin_line(0x7d)
	.dwattr $C$DW$10, DW_AT_TI_begin_column(0x10)
	.dwattr $C$DW$10, DW_AT_TI_interrupt
	.dwattr $C$DW$10, DW_AT_TI_max_frame_size(-2)
	.dwpsn	file "../DSP281x_common/source/DSP281x_DefaultIsr.c",line 126,column 1,is_stmt,address _USER4_ISR,isa 0

	.dwfde $C$DW$CIE, _USER4_ISR
;----------------------------------------------------------------------
; 125 | interrupt void USER4_ISR(void)     // User Defined trap 4              
; 127 | // Insert ISR Code here                                                
; 129 | // Next two lines for debug only to halt the processor here            
; 130 | // Remove after inserting ISR Code                                     
; 131 |  asm ("      ESTOP0");                                                 
;----------------------------------------------------------------------

;***************************************************************
;* FNAME: _USER4_ISR                    FR SIZE:   0           *
;*                                                             *
;* FUNCTION ENVIRONMENT                                        *
;*                                                             *
;* FUNCTION PROPERTIES                                         *
;*                            0 Parameter,  0 Auto,  0 SOE     *
;***************************************************************

_USER4_ISR:
	.dwcfi	cfa_offset, -2
	.dwcfi	save_reg_to_mem, 26, 0
        ASP       ; [CPU_] 
        CLRC      PAGE0,OVM             ; [CPU_] 
        CLRC      AMODE                 ; [CPU_] 
      ESTOP0
$C$L10:    
	.dwpsn	file "../DSP281x_common/source/DSP281x_DefaultIsr.c",line 132,column 4,is_stmt,isa 0
;----------------------------------------------------------------------
; 132 | for(;;);                                                               
;----------------------------------------------------------------------
        B         $C$L10,UNC            ; [CPU_] |132| 
        ; branch occurs ; [] |132| 
	.dwattr $C$DW$10, DW_AT_TI_end_file("../DSP281x_common/source/DSP281x_DefaultIsr.c")
	.dwattr $C$DW$10, DW_AT_TI_end_line(0x85)
	.dwattr $C$DW$10, DW_AT_TI_end_column(0x01)
	.dwendentry
	.dwendtag $C$DW$10

	.sect	".text:retain"
	.retain
	.retainrefs
	.global	_USER3_ISR

$C$DW$11	.dwtag  DW_TAG_subprogram
	.dwattr $C$DW$11, DW_AT_name("USER3_ISR")
	.dwattr $C$DW$11, DW_AT_low_pc(_USER3_ISR)
	.dwattr $C$DW$11, DW_AT_high_pc(0x00)
	.dwattr $C$DW$11, DW_AT_TI_symbol_name("_USER3_ISR")
	.dwattr $C$DW$11, DW_AT_external
	.dwattr $C$DW$11, DW_AT_TI_begin_file("../DSP281x_common/source/DSP281x_DefaultIsr.c")
	.dwattr $C$DW$11, DW_AT_TI_begin_line(0x73)
	.dwattr $C$DW$11, DW_AT_TI_begin_column(0x10)
	.dwattr $C$DW$11, DW_AT_TI_interrupt
	.dwattr $C$DW$11, DW_AT_TI_max_frame_size(-2)
	.dwpsn	file "../DSP281x_common/source/DSP281x_DefaultIsr.c",line 116,column 1,is_stmt,address _USER3_ISR,isa 0

	.dwfde $C$DW$CIE, _USER3_ISR
;----------------------------------------------------------------------
; 115 | interrupt void USER3_ISR(void)     // User Defined trap 3              
; 117 | // Insert ISR Code here                                                
; 119 | // Next two lines for debug only to halt the processor here            
; 120 | // Remove after inserting ISR Code                                     
; 121 |  asm ("      ESTOP0");                                                 
;----------------------------------------------------------------------

;***************************************************************
;* FNAME: _USER3_ISR                    FR SIZE:   0           *
;*                                                             *
;* FUNCTION ENVIRONMENT                                        *
;*                                                             *
;* FUNCTION PROPERTIES                                         *
;*                            0 Parameter,  0 Auto,  0 SOE     *
;***************************************************************

_USER3_ISR:
	.dwcfi	cfa_offset, -2
	.dwcfi	save_reg_to_mem, 26, 0
        ASP       ; [CPU_] 
        CLRC      PAGE0,OVM             ; [CPU_] 
        CLRC      AMODE                 ; [CPU_] 
      ESTOP0
$C$L11:    
	.dwpsn	file "../DSP281x_common/source/DSP281x_DefaultIsr.c",line 122,column 4,is_stmt,isa 0
;----------------------------------------------------------------------
; 122 | for(;;);                                                               
;----------------------------------------------------------------------
        B         $C$L11,UNC            ; [CPU_] |122| 
        ; branch occurs ; [] |122| 
	.dwattr $C$DW$11, DW_AT_TI_end_file("../DSP281x_common/source/DSP281x_DefaultIsr.c")
	.dwattr $C$DW$11, DW_AT_TI_end_line(0x7b)
	.dwattr $C$DW$11, DW_AT_TI_end_column(0x01)
	.dwendentry
	.dwendtag $C$DW$11

	.sect	".text:retain"
	.retain
	.retainrefs
	.global	_USER2_ISR

$C$DW$12	.dwtag  DW_TAG_subprogram
	.dwattr $C$DW$12, DW_AT_name("USER2_ISR")
	.dwattr $C$DW$12, DW_AT_low_pc(_USER2_ISR)
	.dwattr $C$DW$12, DW_AT_high_pc(0x00)
	.dwattr $C$DW$12, DW_AT_TI_symbol_name("_USER2_ISR")
	.dwattr $C$DW$12, DW_AT_external
	.dwattr $C$DW$12, DW_AT_TI_begin_file("../DSP281x_common/source/DSP281x_DefaultIsr.c")
	.dwattr $C$DW$12, DW_AT_TI_begin_line(0x67)
	.dwattr $C$DW$12, DW_AT_TI_begin_column(0x10)
	.dwattr $C$DW$12, DW_AT_TI_interrupt
	.dwattr $C$DW$12, DW_AT_TI_max_frame_size(-2)
	.dwpsn	file "../DSP281x_common/source/DSP281x_DefaultIsr.c",line 104,column 1,is_stmt,address _USER2_ISR,isa 0

	.dwfde $C$DW$CIE, _USER2_ISR
;----------------------------------------------------------------------
; 103 | interrupt void USER2_ISR(void)     // User Defined trap 2              
; 105 | // Insert ISR Code here                                                
; 107 | // Next two lines for debug only to halt the processor here            
; 108 | // Remove after inserting ISR Code                                     
; 109 |  asm ("      ESTOP0");                                                 
;----------------------------------------------------------------------

;***************************************************************
;* FNAME: _USER2_ISR                    FR SIZE:   0           *
;*                                                             *
;* FUNCTION ENVIRONMENT                                        *
;*                                                             *
;* FUNCTION PROPERTIES                                         *
;*                            0 Parameter,  0 Auto,  0 SOE     *
;***************************************************************

_USER2_ISR:
	.dwcfi	cfa_offset, -2
	.dwcfi	save_reg_to_mem, 26, 0
        ASP       ; [CPU_] 
        CLRC      PAGE0,OVM             ; [CPU_] 
        CLRC      AMODE                 ; [CPU_] 
      ESTOP0
$C$L12:    
	.dwpsn	file "../DSP281x_common/source/DSP281x_DefaultIsr.c",line 110,column 4,is_stmt,isa 0
;----------------------------------------------------------------------
; 110 | for(;;);                                                               
;----------------------------------------------------------------------
        B         $C$L12,UNC            ; [CPU_] |110| 
        ; branch occurs ; [] |110| 
	.dwattr $C$DW$12, DW_AT_TI_end_file("../DSP281x_common/source/DSP281x_DefaultIsr.c")
	.dwattr $C$DW$12, DW_AT_TI_end_line(0x71)
	.dwattr $C$DW$12, DW_AT_TI_end_column(0x01)
	.dwendentry
	.dwendtag $C$DW$12

	.sect	".text:retain"
	.retain
	.retainrefs
	.global	_USER1_ISR

$C$DW$13	.dwtag  DW_TAG_subprogram
	.dwattr $C$DW$13, DW_AT_name("USER1_ISR")
	.dwattr $C$DW$13, DW_AT_low_pc(_USER1_ISR)
	.dwattr $C$DW$13, DW_AT_high_pc(0x00)
	.dwattr $C$DW$13, DW_AT_TI_symbol_name("_USER1_ISR")
	.dwattr $C$DW$13, DW_AT_external
	.dwattr $C$DW$13, DW_AT_TI_begin_file("../DSP281x_common/source/DSP281x_DefaultIsr.c")
	.dwattr $C$DW$13, DW_AT_TI_begin_line(0x5c)
	.dwattr $C$DW$13, DW_AT_TI_begin_column(0x10)
	.dwattr $C$DW$13, DW_AT_TI_interrupt
	.dwattr $C$DW$13, DW_AT_TI_max_frame_size(-2)
	.dwpsn	file "../DSP281x_common/source/DSP281x_DefaultIsr.c",line 93,column 1,is_stmt,address _USER1_ISR,isa 0

	.dwfde $C$DW$CIE, _USER1_ISR
;----------------------------------------------------------------------
;  92 | interrupt void USER1_ISR(void)     // User Defined trap 1              
;  94 | // Insert ISR Code here                                                
;  96 | // Next two lines for debug only to halt the processor here            
;  97 | // Remove after inserting ISR Code                                     
;  98 |  asm ("      ESTOP0");                                                 
;----------------------------------------------------------------------

;***************************************************************
;* FNAME: _USER1_ISR                    FR SIZE:   0           *
;*                                                             *
;* FUNCTION ENVIRONMENT                                        *
;*                                                             *
;* FUNCTION PROPERTIES                                         *
;*                            0 Parameter,  0 Auto,  0 SOE     *
;***************************************************************

_USER1_ISR:
	.dwcfi	cfa_offset, -2
	.dwcfi	save_reg_to_mem, 26, 0
        ASP       ; [CPU_] 
        CLRC      PAGE0,OVM             ; [CPU_] 
        CLRC      AMODE                 ; [CPU_] 
      ESTOP0
$C$L13:    
	.dwpsn	file "../DSP281x_common/source/DSP281x_DefaultIsr.c",line 99,column 4,is_stmt,isa 0
;----------------------------------------------------------------------
;  99 | for(;;);                                                               
;----------------------------------------------------------------------
        B         $C$L13,UNC            ; [CPU_] |99| 
        ; branch occurs ; [] |99| 
	.dwattr $C$DW$13, DW_AT_TI_end_file("../DSP281x_common/source/DSP281x_DefaultIsr.c")
	.dwattr $C$DW$13, DW_AT_TI_end_line(0x65)
	.dwattr $C$DW$13, DW_AT_TI_end_column(0x01)
	.dwendentry
	.dwendtag $C$DW$13

	.sect	".text:retain"
	.retain
	.retainrefs
	.global	_USER12_ISR

$C$DW$14	.dwtag  DW_TAG_subprogram
	.dwattr $C$DW$14, DW_AT_name("USER12_ISR")
	.dwattr $C$DW$14, DW_AT_low_pc(_USER12_ISR)
	.dwattr $C$DW$14, DW_AT_high_pc(0x00)
	.dwattr $C$DW$14, DW_AT_TI_symbol_name("_USER12_ISR")
	.dwattr $C$DW$14, DW_AT_external
	.dwattr $C$DW$14, DW_AT_TI_begin_file("../DSP281x_common/source/DSP281x_DefaultIsr.c")
	.dwattr $C$DW$14, DW_AT_TI_begin_line(0xcd)
	.dwattr $C$DW$14, DW_AT_TI_begin_column(0x10)
	.dwattr $C$DW$14, DW_AT_TI_interrupt
	.dwattr $C$DW$14, DW_AT_TI_max_frame_size(-2)
	.dwpsn	file "../DSP281x_common/source/DSP281x_DefaultIsr.c",line 206,column 1,is_stmt,address _USER12_ISR,isa 0

	.dwfde $C$DW$CIE, _USER12_ISR
;----------------------------------------------------------------------
; 205 | interrupt void USER12_ISR(void)     // User Defined trap 12            
; 207 | // Insert ISR Code here                                                
; 209 |  // Next two lines for debug only to halt the processor here           
; 210 |  // Remove after inserting ISR Code                                    
; 211 |   asm ("      ESTOP0");                                                
;----------------------------------------------------------------------

;***************************************************************
;* FNAME: _USER12_ISR                   FR SIZE:   0           *
;*                                                             *
;* FUNCTION ENVIRONMENT                                        *
;*                                                             *
;* FUNCTION PROPERTIES                                         *
;*                            0 Parameter,  0 Auto,  0 SOE     *
;***************************************************************

_USER12_ISR:
	.dwcfi	cfa_offset, -2
	.dwcfi	save_reg_to_mem, 26, 0
        ASP       ; [CPU_] 
        CLRC      PAGE0,OVM             ; [CPU_] 
        CLRC      AMODE                 ; [CPU_] 
      ESTOP0
$C$L14:    
	.dwpsn	file "../DSP281x_common/source/DSP281x_DefaultIsr.c",line 212,column 4,is_stmt,isa 0
;----------------------------------------------------------------------
; 212 | for(;;);                                                               
;----------------------------------------------------------------------
        B         $C$L14,UNC            ; [CPU_] |212| 
        ; branch occurs ; [] |212| 
	.dwattr $C$DW$14, DW_AT_TI_end_file("../DSP281x_common/source/DSP281x_DefaultIsr.c")
	.dwattr $C$DW$14, DW_AT_TI_end_line(0xd6)
	.dwattr $C$DW$14, DW_AT_TI_end_column(0x01)
	.dwendentry
	.dwendtag $C$DW$14

	.sect	".text:retain"
	.retain
	.retainrefs
	.global	_USER11_ISR

$C$DW$15	.dwtag  DW_TAG_subprogram
	.dwattr $C$DW$15, DW_AT_name("USER11_ISR")
	.dwattr $C$DW$15, DW_AT_low_pc(_USER11_ISR)
	.dwattr $C$DW$15, DW_AT_high_pc(0x00)
	.dwattr $C$DW$15, DW_AT_TI_symbol_name("_USER11_ISR")
	.dwattr $C$DW$15, DW_AT_external
	.dwattr $C$DW$15, DW_AT_TI_begin_file("../DSP281x_common/source/DSP281x_DefaultIsr.c")
	.dwattr $C$DW$15, DW_AT_TI_begin_line(0xc3)
	.dwattr $C$DW$15, DW_AT_TI_begin_column(0x10)
	.dwattr $C$DW$15, DW_AT_TI_interrupt
	.dwattr $C$DW$15, DW_AT_TI_max_frame_size(-2)
	.dwpsn	file "../DSP281x_common/source/DSP281x_DefaultIsr.c",line 196,column 1,is_stmt,address _USER11_ISR,isa 0

	.dwfde $C$DW$CIE, _USER11_ISR
;----------------------------------------------------------------------
; 195 | interrupt void USER11_ISR(void)    // User Defined trap 11             
; 197 | // Insert ISR Code here                                                
; 199 | // Next two lines for debug only to halt the processor here            
; 200 | // Remove after inserting ISR Code                                     
; 201 |  asm ("      ESTOP0");                                                 
;----------------------------------------------------------------------

;***************************************************************
;* FNAME: _USER11_ISR                   FR SIZE:   0           *
;*                                                             *
;* FUNCTION ENVIRONMENT                                        *
;*                                                             *
;* FUNCTION PROPERTIES                                         *
;*                            0 Parameter,  0 Auto,  0 SOE     *
;***************************************************************

_USER11_ISR:
	.dwcfi	cfa_offset, -2
	.dwcfi	save_reg_to_mem, 26, 0
        ASP       ; [CPU_] 
        CLRC      PAGE0,OVM             ; [CPU_] 
        CLRC      AMODE                 ; [CPU_] 
      ESTOP0
$C$L15:    
	.dwpsn	file "../DSP281x_common/source/DSP281x_DefaultIsr.c",line 202,column 4,is_stmt,isa 0
;----------------------------------------------------------------------
; 202 | for(;;);                                                               
;----------------------------------------------------------------------
        B         $C$L15,UNC            ; [CPU_] |202| 
        ; branch occurs ; [] |202| 
	.dwattr $C$DW$15, DW_AT_TI_end_file("../DSP281x_common/source/DSP281x_DefaultIsr.c")
	.dwattr $C$DW$15, DW_AT_TI_end_line(0xcb)
	.dwattr $C$DW$15, DW_AT_TI_end_column(0x01)
	.dwendentry
	.dwendtag $C$DW$15

	.sect	".text:retain"
	.retain
	.retainrefs
	.global	_USER10_ISR

$C$DW$16	.dwtag  DW_TAG_subprogram
	.dwattr $C$DW$16, DW_AT_name("USER10_ISR")
	.dwattr $C$DW$16, DW_AT_low_pc(_USER10_ISR)
	.dwattr $C$DW$16, DW_AT_high_pc(0x00)
	.dwattr $C$DW$16, DW_AT_TI_symbol_name("_USER10_ISR")
	.dwattr $C$DW$16, DW_AT_external
	.dwattr $C$DW$16, DW_AT_TI_begin_file("../DSP281x_common/source/DSP281x_DefaultIsr.c")
	.dwattr $C$DW$16, DW_AT_TI_begin_line(0xb9)
	.dwattr $C$DW$16, DW_AT_TI_begin_column(0x10)
	.dwattr $C$DW$16, DW_AT_TI_interrupt
	.dwattr $C$DW$16, DW_AT_TI_max_frame_size(-2)
	.dwpsn	file "../DSP281x_common/source/DSP281x_DefaultIsr.c",line 186,column 1,is_stmt,address _USER10_ISR,isa 0

	.dwfde $C$DW$CIE, _USER10_ISR
;----------------------------------------------------------------------
; 185 | interrupt void USER10_ISR(void)    // User Defined trap 10             
; 187 | // Insert ISR Code here                                                
; 189 | // Next two lines for debug only to halt the processor here            
; 190 | // Remove after inserting ISR Code                                     
; 191 |  asm ("      ESTOP0");                                                 
;----------------------------------------------------------------------

;***************************************************************
;* FNAME: _USER10_ISR                   FR SIZE:   0           *
;*                                                             *
;* FUNCTION ENVIRONMENT                                        *
;*                                                             *
;* FUNCTION PROPERTIES                                         *
;*                            0 Parameter,  0 Auto,  0 SOE     *
;***************************************************************

_USER10_ISR:
	.dwcfi	cfa_offset, -2
	.dwcfi	save_reg_to_mem, 26, 0
        ASP       ; [CPU_] 
        CLRC      PAGE0,OVM             ; [CPU_] 
        CLRC      AMODE                 ; [CPU_] 
      ESTOP0
$C$L16:    
	.dwpsn	file "../DSP281x_common/source/DSP281x_DefaultIsr.c",line 192,column 4,is_stmt,isa 0
;----------------------------------------------------------------------
; 192 | for(;;);                                                               
;----------------------------------------------------------------------
        B         $C$L16,UNC            ; [CPU_] |192| 
        ; branch occurs ; [] |192| 
	.dwattr $C$DW$16, DW_AT_TI_end_file("../DSP281x_common/source/DSP281x_DefaultIsr.c")
	.dwattr $C$DW$16, DW_AT_TI_end_line(0xc1)
	.dwattr $C$DW$16, DW_AT_TI_end_column(0x01)
	.dwendentry
	.dwendtag $C$DW$16

	.sect	".text:retain"
	.retain
	.retainrefs
	.global	_TINT0_ISR

$C$DW$17	.dwtag  DW_TAG_subprogram
	.dwattr $C$DW$17, DW_AT_name("TINT0_ISR")
	.dwattr $C$DW$17, DW_AT_low_pc(_TINT0_ISR)
	.dwattr $C$DW$17, DW_AT_high_pc(0x00)
	.dwattr $C$DW$17, DW_AT_TI_symbol_name("_TINT0_ISR")
	.dwattr $C$DW$17, DW_AT_external
	.dwattr $C$DW$17, DW_AT_TI_begin_file("../DSP281x_common/source/DSP281x_DefaultIsr.c")
	.dwattr $C$DW$17, DW_AT_TI_begin_line(0x127)
	.dwattr $C$DW$17, DW_AT_TI_begin_column(0x11)
	.dwattr $C$DW$17, DW_AT_TI_interrupt
	.dwattr $C$DW$17, DW_AT_TI_max_frame_size(-2)
	.dwpsn	file "../DSP281x_common/source/DSP281x_DefaultIsr.c",line 296,column 1,is_stmt,address _TINT0_ISR,isa 0

	.dwfde $C$DW$CIE, _TINT0_ISR
;----------------------------------------------------------------------
; 295 | interrupt void  TINT0_ISR(void)      // CPU-Timer 0                    
; 297 | // Insert ISR Code here                                                
; 299 | // To receive more interrupts from this PIE group, acknowledge this int
;     | errupt                                                                 
; 300 | // PieCtrlRegs.PIEACK.all = PIEACK_GROUP1;                             
; 302 | // Next two lines for debug only to halt the processor here            
; 303 | // Remove after inserting ISR Code                                     
; 304 |    asm ("      ESTOP0");                                               
;----------------------------------------------------------------------

;***************************************************************
;* FNAME: _TINT0_ISR                    FR SIZE:   0           *
;*                                                             *
;* FUNCTION ENVIRONMENT                                        *
;*                                                             *
;* FUNCTION PROPERTIES                                         *
;*                            0 Parameter,  0 Auto,  0 SOE     *
;***************************************************************

_TINT0_ISR:
	.dwcfi	cfa_offset, -2
	.dwcfi	save_reg_to_mem, 26, 0
        ASP       ; [CPU_] 
        CLRC      PAGE0,OVM             ; [CPU_] 
        CLRC      AMODE                 ; [CPU_] 
      ESTOP0
$C$L17:    
	.dwpsn	file "../DSP281x_common/source/DSP281x_DefaultIsr.c",line 305,column 6,is_stmt,isa 0
;----------------------------------------------------------------------
; 305 | for(;;);                                                               
;----------------------------------------------------------------------
        B         $C$L17,UNC            ; [CPU_] |305| 
        ; branch occurs ; [] |305| 
	.dwattr $C$DW$17, DW_AT_TI_end_file("../DSP281x_common/source/DSP281x_DefaultIsr.c")
	.dwattr $C$DW$17, DW_AT_TI_end_line(0x132)
	.dwattr $C$DW$17, DW_AT_TI_end_column(0x01)
	.dwendentry
	.dwendtag $C$DW$17

	.sect	".text:retain"
	.retain
	.retainrefs
	.global	_T4UFINT_ISR

$C$DW$18	.dwtag  DW_TAG_subprogram
	.dwattr $C$DW$18, DW_AT_name("T4UFINT_ISR")
	.dwattr $C$DW$18, DW_AT_low_pc(_T4UFINT_ISR)
	.dwattr $C$DW$18, DW_AT_high_pc(0x00)
	.dwattr $C$DW$18, DW_AT_TI_symbol_name("_T4UFINT_ISR")
	.dwattr $C$DW$18, DW_AT_external
	.dwattr $C$DW$18, DW_AT_TI_begin_file("../DSP281x_common/source/DSP281x_DefaultIsr.c")
	.dwattr $C$DW$18, DW_AT_TI_begin_line(0x2a2)
	.dwattr $C$DW$18, DW_AT_TI_begin_column(0x10)
	.dwattr $C$DW$18, DW_AT_TI_interrupt
	.dwattr $C$DW$18, DW_AT_TI_max_frame_size(-2)
	.dwpsn	file "../DSP281x_common/source/DSP281x_DefaultIsr.c",line 675,column 1,is_stmt,address _T4UFINT_ISR,isa 0

	.dwfde $C$DW$CIE, _T4UFINT_ISR
;----------------------------------------------------------------------
; 674 | interrupt void T4UFINT_ISR(void)   // EV-B                             
; 676 | // Insert ISR Code here                                                
; 678 | // To receive more interrupts from this PIE group, acknowledge this int
;     | errupt                                                                 
; 679 | // PieCtrlRegs.PIEACK.all = PIEACK_GROUP5;                             
; 681 | // Next two lines for debug only to halt the processor here            
; 682 | // Remove after inserting ISR Code                                     
; 683 |  asm ("      ESTOP0");                                                 
;----------------------------------------------------------------------

;***************************************************************
;* FNAME: _T4UFINT_ISR                  FR SIZE:   0           *
;*                                                             *
;* FUNCTION ENVIRONMENT                                        *
;*                                                             *
;* FUNCTION PROPERTIES                                         *
;*                            0 Parameter,  0 Auto,  0 SOE     *
;***************************************************************

_T4UFINT_ISR:
	.dwcfi	cfa_offset, -2
	.dwcfi	save_reg_to_mem, 26, 0
        ASP       ; [CPU_] 
        CLRC      PAGE0,OVM             ; [CPU_] 
        CLRC      AMODE                 ; [CPU_] 
      ESTOP0
$C$L18:    
	.dwpsn	file "../DSP281x_common/source/DSP281x_DefaultIsr.c",line 684,column 4,is_stmt,isa 0
;----------------------------------------------------------------------
; 684 | for(;;);                                                               
;----------------------------------------------------------------------
        B         $C$L18,UNC            ; [CPU_] |684| 
        ; branch occurs ; [] |684| 
	.dwattr $C$DW$18, DW_AT_TI_end_file("../DSP281x_common/source/DSP281x_DefaultIsr.c")
	.dwattr $C$DW$18, DW_AT_TI_end_line(0x2ad)
	.dwattr $C$DW$18, DW_AT_TI_end_column(0x01)
	.dwendentry
	.dwendtag $C$DW$18

	.sect	".text:retain"
	.retain
	.retainrefs
	.global	_T4PINT_ISR

$C$DW$19	.dwtag  DW_TAG_subprogram
	.dwattr $C$DW$19, DW_AT_name("T4PINT_ISR")
	.dwattr $C$DW$19, DW_AT_low_pc(_T4PINT_ISR)
	.dwattr $C$DW$19, DW_AT_high_pc(0x00)
	.dwattr $C$DW$19, DW_AT_TI_symbol_name("_T4PINT_ISR")
	.dwattr $C$DW$19, DW_AT_external
	.dwattr $C$DW$19, DW_AT_TI_begin_file("../DSP281x_common/source/DSP281x_DefaultIsr.c")
	.dwattr $C$DW$19, DW_AT_TI_begin_line(0x286)
	.dwattr $C$DW$19, DW_AT_TI_begin_column(0x10)
	.dwattr $C$DW$19, DW_AT_TI_interrupt
	.dwattr $C$DW$19, DW_AT_TI_max_frame_size(-2)
	.dwpsn	file "../DSP281x_common/source/DSP281x_DefaultIsr.c",line 647,column 1,is_stmt,address _T4PINT_ISR,isa 0

	.dwfde $C$DW$CIE, _T4PINT_ISR
;----------------------------------------------------------------------
; 646 | interrupt void T4PINT_ISR(void)    // EV-B                             
; 648 | // Insert ISR Code here                                                
; 650 | // To receive more interrupts from this PIE group, acknowledge this int
;     | errupt                                                                 
; 651 | // PieCtrlRegs.PIEACK.all = PIEACK_GROUP5;                             
; 653 | // Next two lines for debug only to halt the processor here            
; 654 | // Remove after inserting ISR Code                                     
; 655 |  asm ("      ESTOP0");                                                 
;----------------------------------------------------------------------

;***************************************************************
;* FNAME: _T4PINT_ISR                   FR SIZE:   0           *
;*                                                             *
;* FUNCTION ENVIRONMENT                                        *
;*                                                             *
;* FUNCTION PROPERTIES                                         *
;*                            0 Parameter,  0 Auto,  0 SOE     *
;***************************************************************

_T4PINT_ISR:
	.dwcfi	cfa_offset, -2
	.dwcfi	save_reg_to_mem, 26, 0
        ASP       ; [CPU_] 
        CLRC      PAGE0,OVM             ; [CPU_] 
        CLRC      AMODE                 ; [CPU_] 
      ESTOP0
$C$L19:    
	.dwpsn	file "../DSP281x_common/source/DSP281x_DefaultIsr.c",line 656,column 4,is_stmt,isa 0
;----------------------------------------------------------------------
; 656 | for(;;);                                                               
;----------------------------------------------------------------------
        B         $C$L19,UNC            ; [CPU_] |656| 
        ; branch occurs ; [] |656| 
	.dwattr $C$DW$19, DW_AT_TI_end_file("../DSP281x_common/source/DSP281x_DefaultIsr.c")
	.dwattr $C$DW$19, DW_AT_TI_end_line(0x291)
	.dwattr $C$DW$19, DW_AT_TI_end_column(0x01)
	.dwendentry
	.dwendtag $C$DW$19

	.sect	".text:retain"
	.retain
	.retainrefs
	.global	_T4OFINT_ISR

$C$DW$20	.dwtag  DW_TAG_subprogram
	.dwattr $C$DW$20, DW_AT_name("T4OFINT_ISR")
	.dwattr $C$DW$20, DW_AT_low_pc(_T4OFINT_ISR)
	.dwattr $C$DW$20, DW_AT_high_pc(0x00)
	.dwattr $C$DW$20, DW_AT_TI_symbol_name("_T4OFINT_ISR")
	.dwattr $C$DW$20, DW_AT_external
	.dwattr $C$DW$20, DW_AT_TI_begin_file("../DSP281x_common/source/DSP281x_DefaultIsr.c")
	.dwattr $C$DW$20, DW_AT_TI_begin_line(0x2b0)
	.dwattr $C$DW$20, DW_AT_TI_begin_column(0x10)
	.dwattr $C$DW$20, DW_AT_TI_interrupt
	.dwattr $C$DW$20, DW_AT_TI_max_frame_size(-2)
	.dwpsn	file "../DSP281x_common/source/DSP281x_DefaultIsr.c",line 689,column 1,is_stmt,address _T4OFINT_ISR,isa 0

	.dwfde $C$DW$CIE, _T4OFINT_ISR
;----------------------------------------------------------------------
; 688 | interrupt void T4OFINT_ISR(void)   // EV-B                             
; 690 | // Insert ISR Code here                                                
; 692 | // To receive more interrupts from this PIE group, acknowledge this int
;     | errupt                                                                 
; 693 | // PieCtrlRegs.PIEACK.all = PIEACK_GROUP5;                             
; 695 | // Next two lines for debug only to halt the processor here            
; 696 | // Remove after inserting ISR Code                                     
; 697 |  asm ("      ESTOP0");                                                 
;----------------------------------------------------------------------

;***************************************************************
;* FNAME: _T4OFINT_ISR                  FR SIZE:   0           *
;*                                                             *
;* FUNCTION ENVIRONMENT                                        *
;*                                                             *
;* FUNCTION PROPERTIES                                         *
;*                            0 Parameter,  0 Auto,  0 SOE     *
;***************************************************************

_T4OFINT_ISR:
	.dwcfi	cfa_offset, -2
	.dwcfi	save_reg_to_mem, 26, 0
        ASP       ; [CPU_] 
        CLRC      PAGE0,OVM             ; [CPU_] 
        CLRC      AMODE                 ; [CPU_] 
      ESTOP0
$C$L20:    
	.dwpsn	file "../DSP281x_common/source/DSP281x_DefaultIsr.c",line 698,column 4,is_stmt,isa 0
;----------------------------------------------------------------------
; 698 | for(;;);                                                               
;----------------------------------------------------------------------
        B         $C$L20,UNC            ; [CPU_] |698| 
        ; branch occurs ; [] |698| 
	.dwattr $C$DW$20, DW_AT_TI_end_file("../DSP281x_common/source/DSP281x_DefaultIsr.c")
	.dwattr $C$DW$20, DW_AT_TI_end_line(0x2bb)
	.dwattr $C$DW$20, DW_AT_TI_end_column(0x01)
	.dwendentry
	.dwendtag $C$DW$20

	.sect	".text:retain"
	.retain
	.retainrefs
	.global	_T4CINT_ISR

$C$DW$21	.dwtag  DW_TAG_subprogram
	.dwattr $C$DW$21, DW_AT_name("T4CINT_ISR")
	.dwattr $C$DW$21, DW_AT_low_pc(_T4CINT_ISR)
	.dwattr $C$DW$21, DW_AT_high_pc(0x00)
	.dwattr $C$DW$21, DW_AT_TI_symbol_name("_T4CINT_ISR")
	.dwattr $C$DW$21, DW_AT_external
	.dwattr $C$DW$21, DW_AT_TI_begin_file("../DSP281x_common/source/DSP281x_DefaultIsr.c")
	.dwattr $C$DW$21, DW_AT_TI_begin_line(0x294)
	.dwattr $C$DW$21, DW_AT_TI_begin_column(0x10)
	.dwattr $C$DW$21, DW_AT_TI_interrupt
	.dwattr $C$DW$21, DW_AT_TI_max_frame_size(-2)
	.dwpsn	file "../DSP281x_common/source/DSP281x_DefaultIsr.c",line 661,column 1,is_stmt,address _T4CINT_ISR,isa 0

	.dwfde $C$DW$CIE, _T4CINT_ISR
;----------------------------------------------------------------------
; 660 | interrupt void T4CINT_ISR(void)    // EV-B                             
; 662 | // Insert ISR Code here                                                
; 664 | // To receive more interrupts from this PIE group, acknowledge this int
;     | errupt                                                                 
; 665 | // PieCtrlRegs.PIEACK.all = PIEACK_GROUP5;                             
; 667 | // Next two lines for debug only to halt the processor here            
; 668 | // Remove after inserting ISR Code                                     
; 669 |  asm ("      ESTOP0");                                                 
;----------------------------------------------------------------------

;***************************************************************
;* FNAME: _T4CINT_ISR                   FR SIZE:   0           *
;*                                                             *
;* FUNCTION ENVIRONMENT                                        *
;*                                                             *
;* FUNCTION PROPERTIES                                         *
;*                            0 Parameter,  0 Auto,  0 SOE     *
;***************************************************************

_T4CINT_ISR:
	.dwcfi	cfa_offset, -2
	.dwcfi	save_reg_to_mem, 26, 0
        ASP       ; [CPU_] 
        CLRC      PAGE0,OVM             ; [CPU_] 
        CLRC      AMODE                 ; [CPU_] 
      ESTOP0
$C$L21:    
	.dwpsn	file "../DSP281x_common/source/DSP281x_DefaultIsr.c",line 670,column 4,is_stmt,isa 0
;----------------------------------------------------------------------
; 670 | for(;;);                                                               
;----------------------------------------------------------------------
        B         $C$L21,UNC            ; [CPU_] |670| 
        ; branch occurs ; [] |670| 
	.dwattr $C$DW$21, DW_AT_TI_end_file("../DSP281x_common/source/DSP281x_DefaultIsr.c")
	.dwattr $C$DW$21, DW_AT_TI_end_line(0x29f)
	.dwattr $C$DW$21, DW_AT_TI_end_column(0x01)
	.dwendentry
	.dwendtag $C$DW$21

	.sect	".text:retain"
	.retain
	.retainrefs
	.global	_T3UFINT_ISR

$C$DW$22	.dwtag  DW_TAG_subprogram
	.dwattr $C$DW$22, DW_AT_name("T3UFINT_ISR")
	.dwattr $C$DW$22, DW_AT_low_pc(_T3UFINT_ISR)
	.dwattr $C$DW$22, DW_AT_high_pc(0x00)
	.dwattr $C$DW$22, DW_AT_TI_symbol_name("_T3UFINT_ISR")
	.dwattr $C$DW$22, DW_AT_external
	.dwattr $C$DW$22, DW_AT_TI_begin_file("../DSP281x_common/source/DSP281x_DefaultIsr.c")
	.dwattr $C$DW$22, DW_AT_TI_begin_line(0x264)
	.dwattr $C$DW$22, DW_AT_TI_begin_column(0x10)
	.dwattr $C$DW$22, DW_AT_TI_interrupt
	.dwattr $C$DW$22, DW_AT_TI_max_frame_size(-2)
	.dwpsn	file "../DSP281x_common/source/DSP281x_DefaultIsr.c",line 613,column 1,is_stmt,address _T3UFINT_ISR,isa 0

	.dwfde $C$DW$CIE, _T3UFINT_ISR
;----------------------------------------------------------------------
; 612 | interrupt void T3UFINT_ISR(void)    // EV-B                            
; 614 | // Insert ISR Code here                                                
; 616 | // To receive more interrupts from this PIE group, acknowledge this int
;     | errupt                                                                 
; 617 | // PieCtrlRegs.PIEACK.all = PIEACK_GROUP4;                             
; 619 | // Next two lines for debug only to halt the processor here            
; 620 | // Remove after inserting ISR Code                                     
; 621 |  asm ("      ESTOP0");                                                 
;----------------------------------------------------------------------

;***************************************************************
;* FNAME: _T3UFINT_ISR                  FR SIZE:   0           *
;*                                                             *
;* FUNCTION ENVIRONMENT                                        *
;*                                                             *
;* FUNCTION PROPERTIES                                         *
;*                            0 Parameter,  0 Auto,  0 SOE     *
;***************************************************************

_T3UFINT_ISR:
	.dwcfi	cfa_offset, -2
	.dwcfi	save_reg_to_mem, 26, 0
        ASP       ; [CPU_] 
        CLRC      PAGE0,OVM             ; [CPU_] 
        CLRC      AMODE                 ; [CPU_] 
      ESTOP0
$C$L22:    
	.dwpsn	file "../DSP281x_common/source/DSP281x_DefaultIsr.c",line 622,column 4,is_stmt,isa 0
;----------------------------------------------------------------------
; 622 | for(;;);                                                               
;----------------------------------------------------------------------
        B         $C$L22,UNC            ; [CPU_] |622| 
        ; branch occurs ; [] |622| 
	.dwattr $C$DW$22, DW_AT_TI_end_file("../DSP281x_common/source/DSP281x_DefaultIsr.c")
	.dwattr $C$DW$22, DW_AT_TI_end_line(0x26f)
	.dwattr $C$DW$22, DW_AT_TI_end_column(0x01)
	.dwendentry
	.dwendtag $C$DW$22

	.sect	".text:retain"
	.retain
	.retainrefs
	.global	_T3PINT_ISR

$C$DW$23	.dwtag  DW_TAG_subprogram
	.dwattr $C$DW$23, DW_AT_name("T3PINT_ISR")
	.dwattr $C$DW$23, DW_AT_low_pc(_T3PINT_ISR)
	.dwattr $C$DW$23, DW_AT_high_pc(0x00)
	.dwattr $C$DW$23, DW_AT_TI_symbol_name("_T3PINT_ISR")
	.dwattr $C$DW$23, DW_AT_external
	.dwattr $C$DW$23, DW_AT_TI_begin_file("../DSP281x_common/source/DSP281x_DefaultIsr.c")
	.dwattr $C$DW$23, DW_AT_TI_begin_line(0x248)
	.dwattr $C$DW$23, DW_AT_TI_begin_column(0x10)
	.dwattr $C$DW$23, DW_AT_TI_interrupt
	.dwattr $C$DW$23, DW_AT_TI_max_frame_size(-2)
	.dwpsn	file "../DSP281x_common/source/DSP281x_DefaultIsr.c",line 585,column 1,is_stmt,address _T3PINT_ISR,isa 0

	.dwfde $C$DW$CIE, _T3PINT_ISR
;----------------------------------------------------------------------
; 584 | interrupt void T3PINT_ISR(void)     // EV-B                            
; 586 | // Insert ISR Code here                                                
; 588 | // To receive more interrupts from this PIE group, acknowledge this int
;     | errupt                                                                 
; 589 | // PieCtrlRegs.PIEACK.all = PIEACK_GROUP4;                             
; 591 | // Next two lines for debug only to halt the processor here            
; 592 | // Remove after inserting ISR Code                                     
; 593 |  asm ("      ESTOP0");                                                 
;----------------------------------------------------------------------

;***************************************************************
;* FNAME: _T3PINT_ISR                   FR SIZE:   0           *
;*                                                             *
;* FUNCTION ENVIRONMENT                                        *
;*                                                             *
;* FUNCTION PROPERTIES                                         *
;*                            0 Parameter,  0 Auto,  0 SOE     *
;***************************************************************

_T3PINT_ISR:
	.dwcfi	cfa_offset, -2
	.dwcfi	save_reg_to_mem, 26, 0
        ASP       ; [CPU_] 
        CLRC      PAGE0,OVM             ; [CPU_] 
        CLRC      AMODE                 ; [CPU_] 
      ESTOP0
$C$L23:    
	.dwpsn	file "../DSP281x_common/source/DSP281x_DefaultIsr.c",line 594,column 4,is_stmt,isa 0
;----------------------------------------------------------------------
; 594 | for(;;);                                                               
;----------------------------------------------------------------------
        B         $C$L23,UNC            ; [CPU_] |594| 
        ; branch occurs ; [] |594| 
	.dwattr $C$DW$23, DW_AT_TI_end_file("../DSP281x_common/source/DSP281x_DefaultIsr.c")
	.dwattr $C$DW$23, DW_AT_TI_end_line(0x253)
	.dwattr $C$DW$23, DW_AT_TI_end_column(0x01)
	.dwendentry
	.dwendtag $C$DW$23

	.sect	".text:retain"
	.retain
	.retainrefs
	.global	_T3OFINT_ISR

$C$DW$24	.dwtag  DW_TAG_subprogram
	.dwattr $C$DW$24, DW_AT_name("T3OFINT_ISR")
	.dwattr $C$DW$24, DW_AT_low_pc(_T3OFINT_ISR)
	.dwattr $C$DW$24, DW_AT_high_pc(0x00)
	.dwattr $C$DW$24, DW_AT_TI_symbol_name("_T3OFINT_ISR")
	.dwattr $C$DW$24, DW_AT_external
	.dwattr $C$DW$24, DW_AT_TI_begin_file("../DSP281x_common/source/DSP281x_DefaultIsr.c")
	.dwattr $C$DW$24, DW_AT_TI_begin_line(0x272)
	.dwattr $C$DW$24, DW_AT_TI_begin_column(0x10)
	.dwattr $C$DW$24, DW_AT_TI_interrupt
	.dwattr $C$DW$24, DW_AT_TI_max_frame_size(-2)
	.dwpsn	file "../DSP281x_common/source/DSP281x_DefaultIsr.c",line 627,column 1,is_stmt,address _T3OFINT_ISR,isa 0

	.dwfde $C$DW$CIE, _T3OFINT_ISR
;----------------------------------------------------------------------
; 626 | interrupt void T3OFINT_ISR(void)    // EV-B                            
; 628 | // Insert ISR Code here                                                
; 630 | // To receive more interrupts from this PIE group, acknowledge this int
;     | errupt                                                                 
; 631 | // PieCtrlRegs.PIEACK.all = PIEACK_GROUP4;                             
; 633 | // Next two lines for debug only to halt the processor here            
; 634 | // Remove after inserting ISR Code                                     
; 635 |  asm ("      ESTOP0");                                                 
;----------------------------------------------------------------------

;***************************************************************
;* FNAME: _T3OFINT_ISR                  FR SIZE:   0           *
;*                                                             *
;* FUNCTION ENVIRONMENT                                        *
;*                                                             *
;* FUNCTION PROPERTIES                                         *
;*                            0 Parameter,  0 Auto,  0 SOE     *
;***************************************************************

_T3OFINT_ISR:
	.dwcfi	cfa_offset, -2
	.dwcfi	save_reg_to_mem, 26, 0
        ASP       ; [CPU_] 
        CLRC      PAGE0,OVM             ; [CPU_] 
        CLRC      AMODE                 ; [CPU_] 
      ESTOP0
$C$L24:    
	.dwpsn	file "../DSP281x_common/source/DSP281x_DefaultIsr.c",line 636,column 4,is_stmt,isa 0
;----------------------------------------------------------------------
; 636 | for(;;);                                                               
;----------------------------------------------------------------------
        B         $C$L24,UNC            ; [CPU_] |636| 
        ; branch occurs ; [] |636| 
	.dwattr $C$DW$24, DW_AT_TI_end_file("../DSP281x_common/source/DSP281x_DefaultIsr.c")
	.dwattr $C$DW$24, DW_AT_TI_end_line(0x27d)
	.dwattr $C$DW$24, DW_AT_TI_end_column(0x01)
	.dwendentry
	.dwendtag $C$DW$24

	.sect	".text:retain"
	.retain
	.retainrefs
	.global	_T3CINT_ISR

$C$DW$25	.dwtag  DW_TAG_subprogram
	.dwattr $C$DW$25, DW_AT_name("T3CINT_ISR")
	.dwattr $C$DW$25, DW_AT_low_pc(_T3CINT_ISR)
	.dwattr $C$DW$25, DW_AT_high_pc(0x00)
	.dwattr $C$DW$25, DW_AT_TI_symbol_name("_T3CINT_ISR")
	.dwattr $C$DW$25, DW_AT_external
	.dwattr $C$DW$25, DW_AT_TI_begin_file("../DSP281x_common/source/DSP281x_DefaultIsr.c")
	.dwattr $C$DW$25, DW_AT_TI_begin_line(0x256)
	.dwattr $C$DW$25, DW_AT_TI_begin_column(0x10)
	.dwattr $C$DW$25, DW_AT_TI_interrupt
	.dwattr $C$DW$25, DW_AT_TI_max_frame_size(-2)
	.dwpsn	file "../DSP281x_common/source/DSP281x_DefaultIsr.c",line 599,column 1,is_stmt,address _T3CINT_ISR,isa 0

	.dwfde $C$DW$CIE, _T3CINT_ISR
;----------------------------------------------------------------------
; 598 | interrupt void T3CINT_ISR(void)     // EV-B                            
; 600 | // Insert ISR Code here                                                
; 602 | // To receive more interrupts from this PIE group, acknowledge this int
;     | errupt                                                                 
; 603 | // PieCtrlRegs.PIEACK.all = PIEACK_GROUP4;                             
; 605 | // Next two lines for debug only to halt the processor here            
; 606 | // Remove after inserting ISR Code                                     
; 607 |  asm ("      ESTOP0");                                                 
;----------------------------------------------------------------------

;***************************************************************
;* FNAME: _T3CINT_ISR                   FR SIZE:   0           *
;*                                                             *
;* FUNCTION ENVIRONMENT                                        *
;*                                                             *
;* FUNCTION PROPERTIES                                         *
;*                            0 Parameter,  0 Auto,  0 SOE     *
;***************************************************************

_T3CINT_ISR:
	.dwcfi	cfa_offset, -2
	.dwcfi	save_reg_to_mem, 26, 0
        ASP       ; [CPU_] 
        CLRC      PAGE0,OVM             ; [CPU_] 
        CLRC      AMODE                 ; [CPU_] 
      ESTOP0
$C$L25:    
	.dwpsn	file "../DSP281x_common/source/DSP281x_DefaultIsr.c",line 608,column 4,is_stmt,isa 0
;----------------------------------------------------------------------
; 608 | for(;;);                                                               
;----------------------------------------------------------------------
        B         $C$L25,UNC            ; [CPU_] |608| 
        ; branch occurs ; [] |608| 
	.dwattr $C$DW$25, DW_AT_TI_end_file("../DSP281x_common/source/DSP281x_DefaultIsr.c")
	.dwattr $C$DW$25, DW_AT_TI_end_line(0x261)
	.dwattr $C$DW$25, DW_AT_TI_end_column(0x01)
	.dwendentry
	.dwendtag $C$DW$25

	.sect	".text:retain"
	.retain
	.retainrefs
	.global	_T2UFINT_ISR

$C$DW$26	.dwtag  DW_TAG_subprogram
	.dwattr $C$DW$26, DW_AT_name("T2UFINT_ISR")
	.dwattr $C$DW$26, DW_AT_low_pc(_T2UFINT_ISR)
	.dwattr $C$DW$26, DW_AT_high_pc(0x00)
	.dwattr $C$DW$26, DW_AT_TI_symbol_name("_T2UFINT_ISR")
	.dwattr $C$DW$26, DW_AT_external
	.dwattr $C$DW$26, DW_AT_TI_begin_file("../DSP281x_common/source/DSP281x_DefaultIsr.c")
	.dwattr $C$DW$26, DW_AT_TI_begin_line(0x1d1)
	.dwattr $C$DW$26, DW_AT_TI_begin_column(0x10)
	.dwattr $C$DW$26, DW_AT_TI_interrupt
	.dwattr $C$DW$26, DW_AT_TI_max_frame_size(-2)
	.dwpsn	file "../DSP281x_common/source/DSP281x_DefaultIsr.c",line 466,column 1,is_stmt,address _T2UFINT_ISR,isa 0

	.dwfde $C$DW$CIE, _T2UFINT_ISR
;----------------------------------------------------------------------
; 465 | interrupt void T2UFINT_ISR(void)    // EV-A                            
; 467 | // Insert ISR Code here                                                
; 469 | // To receive more interrupts from this PIE group, acknowledge this int
;     | errupt                                                                 
; 470 | // PieCtrlRegs.PIEACK.all = PIEACK_GROUP3;                             
; 472 | // Next two lines for debug only to halt the processor here            
; 473 | // Remove after inserting ISR Code                                     
; 474 |  asm ("      ESTOP0");                                                 
;----------------------------------------------------------------------

;***************************************************************
;* FNAME: _T2UFINT_ISR                  FR SIZE:   0           *
;*                                                             *
;* FUNCTION ENVIRONMENT                                        *
;*                                                             *
;* FUNCTION PROPERTIES                                         *
;*                            0 Parameter,  0 Auto,  0 SOE     *
;***************************************************************

_T2UFINT_ISR:
	.dwcfi	cfa_offset, -2
	.dwcfi	save_reg_to_mem, 26, 0
        ASP       ; [CPU_] 
        CLRC      PAGE0,OVM             ; [CPU_] 
        CLRC      AMODE                 ; [CPU_] 
      ESTOP0
$C$L26:    
	.dwpsn	file "../DSP281x_common/source/DSP281x_DefaultIsr.c",line 475,column 4,is_stmt,isa 0
;----------------------------------------------------------------------
; 475 | for(;;);                                                               
;----------------------------------------------------------------------
        B         $C$L26,UNC            ; [CPU_] |475| 
        ; branch occurs ; [] |475| 
	.dwattr $C$DW$26, DW_AT_TI_end_file("../DSP281x_common/source/DSP281x_DefaultIsr.c")
	.dwattr $C$DW$26, DW_AT_TI_end_line(0x1dc)
	.dwattr $C$DW$26, DW_AT_TI_end_column(0x01)
	.dwendentry
	.dwendtag $C$DW$26

	.sect	".text:retain"
	.retain
	.retainrefs
	.global	_T2PINT_ISR

$C$DW$27	.dwtag  DW_TAG_subprogram
	.dwattr $C$DW$27, DW_AT_name("T2PINT_ISR")
	.dwattr $C$DW$27, DW_AT_low_pc(_T2PINT_ISR)
	.dwattr $C$DW$27, DW_AT_high_pc(0x00)
	.dwattr $C$DW$27, DW_AT_TI_symbol_name("_T2PINT_ISR")
	.dwattr $C$DW$27, DW_AT_external
	.dwattr $C$DW$27, DW_AT_TI_begin_file("../DSP281x_common/source/DSP281x_DefaultIsr.c")
	.dwattr $C$DW$27, DW_AT_TI_begin_line(0x1b5)
	.dwattr $C$DW$27, DW_AT_TI_begin_column(0x10)
	.dwattr $C$DW$27, DW_AT_TI_interrupt
	.dwattr $C$DW$27, DW_AT_TI_max_frame_size(-2)
	.dwpsn	file "../DSP281x_common/source/DSP281x_DefaultIsr.c",line 438,column 1,is_stmt,address _T2PINT_ISR,isa 0

	.dwfde $C$DW$CIE, _T2PINT_ISR
;----------------------------------------------------------------------
; 437 | interrupt void T2PINT_ISR(void)     // EV-A                            
; 439 | // Insert ISR Code here                                                
; 441 | // To receive more interrupts from this PIE group, acknowledge this int
;     | errupt                                                                 
; 442 | // PieCtrlRegs.PIEACK.all = PIEACK_GROUP3;                             
; 444 | // Next two lines for debug only to halt the processor here            
; 445 | // Remove after inserting ISR Code                                     
; 446 |  asm ("      ESTOP0");                                                 
;----------------------------------------------------------------------

;***************************************************************
;* FNAME: _T2PINT_ISR                   FR SIZE:   0           *
;*                                                             *
;* FUNCTION ENVIRONMENT                                        *
;*                                                             *
;* FUNCTION PROPERTIES                                         *
;*                            0 Parameter,  0 Auto,  0 SOE     *
;***************************************************************

_T2PINT_ISR:
	.dwcfi	cfa_offset, -2
	.dwcfi	save_reg_to_mem, 26, 0
        ASP       ; [CPU_] 
        CLRC      PAGE0,OVM             ; [CPU_] 
        CLRC      AMODE                 ; [CPU_] 
      ESTOP0
$C$L27:    
	.dwpsn	file "../DSP281x_common/source/DSP281x_DefaultIsr.c",line 447,column 4,is_stmt,isa 0
;----------------------------------------------------------------------
; 447 | for(;;);                                                               
;----------------------------------------------------------------------
        B         $C$L27,UNC            ; [CPU_] |447| 
        ; branch occurs ; [] |447| 
	.dwattr $C$DW$27, DW_AT_TI_end_file("../DSP281x_common/source/DSP281x_DefaultIsr.c")
	.dwattr $C$DW$27, DW_AT_TI_end_line(0x1c0)
	.dwattr $C$DW$27, DW_AT_TI_end_column(0x01)
	.dwendentry
	.dwendtag $C$DW$27

	.sect	".text:retain"
	.retain
	.retainrefs
	.global	_T2OFINT_ISR

$C$DW$28	.dwtag  DW_TAG_subprogram
	.dwattr $C$DW$28, DW_AT_name("T2OFINT_ISR")
	.dwattr $C$DW$28, DW_AT_low_pc(_T2OFINT_ISR)
	.dwattr $C$DW$28, DW_AT_high_pc(0x00)
	.dwattr $C$DW$28, DW_AT_TI_symbol_name("_T2OFINT_ISR")
	.dwattr $C$DW$28, DW_AT_external
	.dwattr $C$DW$28, DW_AT_TI_begin_file("../DSP281x_common/source/DSP281x_DefaultIsr.c")
	.dwattr $C$DW$28, DW_AT_TI_begin_line(0x1df)
	.dwattr $C$DW$28, DW_AT_TI_begin_column(0x10)
	.dwattr $C$DW$28, DW_AT_TI_interrupt
	.dwattr $C$DW$28, DW_AT_TI_max_frame_size(-2)
	.dwpsn	file "../DSP281x_common/source/DSP281x_DefaultIsr.c",line 480,column 1,is_stmt,address _T2OFINT_ISR,isa 0

	.dwfde $C$DW$CIE, _T2OFINT_ISR
;----------------------------------------------------------------------
; 479 | interrupt void T2OFINT_ISR(void)    // EV-A                            
; 481 | // Insert ISR Code here                                                
; 483 | // To receive more interrupts from this PIE group, acknowledge this int
;     | errupt                                                                 
; 484 | // PieCtrlRegs.PIEACK.all = PIEACK_GROUP3;                             
; 486 | // Next two lines for debug only to halt the processor here            
; 487 | // Remove after inserting ISR Code                                     
; 488 |  asm ("      ESTOP0");                                                 
;----------------------------------------------------------------------

;***************************************************************
;* FNAME: _T2OFINT_ISR                  FR SIZE:   0           *
;*                                                             *
;* FUNCTION ENVIRONMENT                                        *
;*                                                             *
;* FUNCTION PROPERTIES                                         *
;*                            0 Parameter,  0 Auto,  0 SOE     *
;***************************************************************

_T2OFINT_ISR:
	.dwcfi	cfa_offset, -2
	.dwcfi	save_reg_to_mem, 26, 0
        ASP       ; [CPU_] 
        CLRC      PAGE0,OVM             ; [CPU_] 
        CLRC      AMODE                 ; [CPU_] 
      ESTOP0
$C$L28:    
	.dwpsn	file "../DSP281x_common/source/DSP281x_DefaultIsr.c",line 489,column 4,is_stmt,isa 0
;----------------------------------------------------------------------
; 489 | for(;;);                                                               
;----------------------------------------------------------------------
        B         $C$L28,UNC            ; [CPU_] |489| 
        ; branch occurs ; [] |489| 
	.dwattr $C$DW$28, DW_AT_TI_end_file("../DSP281x_common/source/DSP281x_DefaultIsr.c")
	.dwattr $C$DW$28, DW_AT_TI_end_line(0x1ea)
	.dwattr $C$DW$28, DW_AT_TI_end_column(0x01)
	.dwendentry
	.dwendtag $C$DW$28

	.sect	".text:retain"
	.retain
	.retainrefs
	.global	_T2CINT_ISR

$C$DW$29	.dwtag  DW_TAG_subprogram
	.dwattr $C$DW$29, DW_AT_name("T2CINT_ISR")
	.dwattr $C$DW$29, DW_AT_low_pc(_T2CINT_ISR)
	.dwattr $C$DW$29, DW_AT_high_pc(0x00)
	.dwattr $C$DW$29, DW_AT_TI_symbol_name("_T2CINT_ISR")
	.dwattr $C$DW$29, DW_AT_external
	.dwattr $C$DW$29, DW_AT_TI_begin_file("../DSP281x_common/source/DSP281x_DefaultIsr.c")
	.dwattr $C$DW$29, DW_AT_TI_begin_line(0x1c3)
	.dwattr $C$DW$29, DW_AT_TI_begin_column(0x10)
	.dwattr $C$DW$29, DW_AT_TI_interrupt
	.dwattr $C$DW$29, DW_AT_TI_max_frame_size(-2)
	.dwpsn	file "../DSP281x_common/source/DSP281x_DefaultIsr.c",line 452,column 1,is_stmt,address _T2CINT_ISR,isa 0

	.dwfde $C$DW$CIE, _T2CINT_ISR
;----------------------------------------------------------------------
; 451 | interrupt void T2CINT_ISR(void)     // EV-A                            
; 453 | // Insert ISR Code here                                                
; 455 | // To receive more interrupts from this PIE group, acknowledge this int
;     | errupt                                                                 
; 456 | // PieCtrlRegs.PIEACK.all = PIEACK_GROUP3;                             
; 458 | // Next two lines for debug only to halt the processor here            
; 459 | // Remove after inserting ISR Code                                     
; 460 |  asm ("      ESTOP0");                                                 
;----------------------------------------------------------------------

;***************************************************************
;* FNAME: _T2CINT_ISR                   FR SIZE:   0           *
;*                                                             *
;* FUNCTION ENVIRONMENT                                        *
;*                                                             *
;* FUNCTION PROPERTIES                                         *
;*                            0 Parameter,  0 Auto,  0 SOE     *
;***************************************************************

_T2CINT_ISR:
	.dwcfi	cfa_offset, -2
	.dwcfi	save_reg_to_mem, 26, 0
        ASP       ; [CPU_] 
        CLRC      PAGE0,OVM             ; [CPU_] 
        CLRC      AMODE                 ; [CPU_] 
      ESTOP0
$C$L29:    
	.dwpsn	file "../DSP281x_common/source/DSP281x_DefaultIsr.c",line 461,column 4,is_stmt,isa 0
;----------------------------------------------------------------------
; 461 | for(;;);                                                               
;----------------------------------------------------------------------
        B         $C$L29,UNC            ; [CPU_] |461| 
        ; branch occurs ; [] |461| 
	.dwattr $C$DW$29, DW_AT_TI_end_file("../DSP281x_common/source/DSP281x_DefaultIsr.c")
	.dwattr $C$DW$29, DW_AT_TI_end_line(0x1ce)
	.dwattr $C$DW$29, DW_AT_TI_end_column(0x01)
	.dwendentry
	.dwendtag $C$DW$29

	.sect	".text:retain"
	.retain
	.retainrefs
	.global	_T1UFINT_ISR

$C$DW$30	.dwtag  DW_TAG_subprogram
	.dwattr $C$DW$30, DW_AT_name("T1UFINT_ISR")
	.dwattr $C$DW$30, DW_AT_low_pc(_T1UFINT_ISR)
	.dwattr $C$DW$30, DW_AT_high_pc(0x00)
	.dwattr $C$DW$30, DW_AT_TI_symbol_name("_T1UFINT_ISR")
	.dwattr $C$DW$30, DW_AT_external
	.dwattr $C$DW$30, DW_AT_TI_begin_file("../DSP281x_common/source/DSP281x_DefaultIsr.c")
	.dwattr $C$DW$30, DW_AT_TI_begin_line(0x191)
	.dwattr $C$DW$30, DW_AT_TI_begin_column(0x10)
	.dwattr $C$DW$30, DW_AT_TI_interrupt
	.dwattr $C$DW$30, DW_AT_TI_max_frame_size(-2)
	.dwpsn	file "../DSP281x_common/source/DSP281x_DefaultIsr.c",line 402,column 1,is_stmt,address _T1UFINT_ISR,isa 0

	.dwfde $C$DW$CIE, _T1UFINT_ISR
;----------------------------------------------------------------------
; 401 | interrupt void T1UFINT_ISR(void)   // EV-A                             
; 403 | // Insert ISR Code here                                                
; 406 | // To receive more interrupts from this PIE group, acknowledge this int
;     | errupt                                                                 
; 407 | // PieCtrlRegs.PIEACK.all = PIEACK_GROUP2;                             
; 409 | // Next two lines for debug only to halt the processor here            
; 410 | // Remove after inserting ISR Code                                     
; 411 |  asm ("      ESTOP0");                                                 
;----------------------------------------------------------------------

;***************************************************************
;* FNAME: _T1UFINT_ISR                  FR SIZE:   0           *
;*                                                             *
;* FUNCTION ENVIRONMENT                                        *
;*                                                             *
;* FUNCTION PROPERTIES                                         *
;*                            0 Parameter,  0 Auto,  0 SOE     *
;***************************************************************

_T1UFINT_ISR:
	.dwcfi	cfa_offset, -2
	.dwcfi	save_reg_to_mem, 26, 0
        ASP       ; [CPU_] 
        CLRC      PAGE0,OVM             ; [CPU_] 
        CLRC      AMODE                 ; [CPU_] 
      ESTOP0
$C$L30:    
	.dwpsn	file "../DSP281x_common/source/DSP281x_DefaultIsr.c",line 412,column 4,is_stmt,isa 0
;----------------------------------------------------------------------
; 412 | for(;;);                                                               
;----------------------------------------------------------------------
        B         $C$L30,UNC            ; [CPU_] |412| 
        ; branch occurs ; [] |412| 
	.dwattr $C$DW$30, DW_AT_TI_end_file("../DSP281x_common/source/DSP281x_DefaultIsr.c")
	.dwattr $C$DW$30, DW_AT_TI_end_line(0x19d)
	.dwattr $C$DW$30, DW_AT_TI_end_column(0x01)
	.dwendentry
	.dwendtag $C$DW$30

	.sect	".text:retain"
	.retain
	.retainrefs
	.global	_T1PINT_ISR

$C$DW$31	.dwtag  DW_TAG_subprogram
	.dwattr $C$DW$31, DW_AT_name("T1PINT_ISR")
	.dwattr $C$DW$31, DW_AT_low_pc(_T1PINT_ISR)
	.dwattr $C$DW$31, DW_AT_high_pc(0x00)
	.dwattr $C$DW$31, DW_AT_TI_symbol_name("_T1PINT_ISR")
	.dwattr $C$DW$31, DW_AT_external
	.dwattr $C$DW$31, DW_AT_TI_begin_file("../DSP281x_common/source/DSP281x_DefaultIsr.c")
	.dwattr $C$DW$31, DW_AT_TI_begin_line(0x174)
	.dwattr $C$DW$31, DW_AT_TI_begin_column(0x10)
	.dwattr $C$DW$31, DW_AT_TI_interrupt
	.dwattr $C$DW$31, DW_AT_TI_max_frame_size(-2)
	.dwpsn	file "../DSP281x_common/source/DSP281x_DefaultIsr.c",line 373,column 1,is_stmt,address _T1PINT_ISR,isa 0

	.dwfde $C$DW$CIE, _T1PINT_ISR
;----------------------------------------------------------------------
; 372 | interrupt void T1PINT_ISR(void)    // EV-A                             
; 374 | // Insert ISR Code here                                                
; 376 | // To receive more interrupts from this PIE group, acknowledge this int
;     | errupt                                                                 
; 377 | // PieCtrlRegs.PIEACK.all = PIEACK_GROUP2;                             
; 379 | // Next two lines for debug only to halt the processor here            
; 380 | // Remove after inserting ISR Code                                     
; 381 |  asm ("      ESTOP0");                                                 
;----------------------------------------------------------------------

;***************************************************************
;* FNAME: _T1PINT_ISR                   FR SIZE:   0           *
;*                                                             *
;* FUNCTION ENVIRONMENT                                        *
;*                                                             *
;* FUNCTION PROPERTIES                                         *
;*                            0 Parameter,  0 Auto,  0 SOE     *
;***************************************************************

_T1PINT_ISR:
	.dwcfi	cfa_offset, -2
	.dwcfi	save_reg_to_mem, 26, 0
        ASP       ; [CPU_] 
        CLRC      PAGE0,OVM             ; [CPU_] 
        CLRC      AMODE                 ; [CPU_] 
      ESTOP0
$C$L31:    
	.dwpsn	file "../DSP281x_common/source/DSP281x_DefaultIsr.c",line 382,column 4,is_stmt,isa 0
;----------------------------------------------------------------------
; 382 | for(;;);                                                               
;----------------------------------------------------------------------
        B         $C$L31,UNC            ; [CPU_] |382| 
        ; branch occurs ; [] |382| 
	.dwattr $C$DW$31, DW_AT_TI_end_file("../DSP281x_common/source/DSP281x_DefaultIsr.c")
	.dwattr $C$DW$31, DW_AT_TI_end_line(0x17f)
	.dwattr $C$DW$31, DW_AT_TI_end_column(0x01)
	.dwendentry
	.dwendtag $C$DW$31

	.sect	".text:retain"
	.retain
	.retainrefs
	.global	_T1OFINT_ISR

$C$DW$32	.dwtag  DW_TAG_subprogram
	.dwattr $C$DW$32, DW_AT_name("T1OFINT_ISR")
	.dwattr $C$DW$32, DW_AT_low_pc(_T1OFINT_ISR)
	.dwattr $C$DW$32, DW_AT_high_pc(0x00)
	.dwattr $C$DW$32, DW_AT_TI_symbol_name("_T1OFINT_ISR")
	.dwattr $C$DW$32, DW_AT_external
	.dwattr $C$DW$32, DW_AT_TI_begin_file("../DSP281x_common/source/DSP281x_DefaultIsr.c")
	.dwattr $C$DW$32, DW_AT_TI_begin_line(0x1a0)
	.dwattr $C$DW$32, DW_AT_TI_begin_column(0x10)
	.dwattr $C$DW$32, DW_AT_TI_interrupt
	.dwattr $C$DW$32, DW_AT_TI_max_frame_size(-2)
	.dwpsn	file "../DSP281x_common/source/DSP281x_DefaultIsr.c",line 417,column 1,is_stmt,address _T1OFINT_ISR,isa 0

	.dwfde $C$DW$CIE, _T1OFINT_ISR
;----------------------------------------------------------------------
; 416 | interrupt void T1OFINT_ISR(void)   // EV-A                             
; 418 | // Insert ISR Code here                                                
; 420 | // To receive more interrupts from this PIE group, acknowledge this int
;     | errupt                                                                 
; 421 | // PieCtrlRegs.PIEACK.all = PIEACK_GROUP2;                             
; 423 | // Next two lines for debug only to halt the processor here            
; 424 | // Remove after inserting ISR Code                                     
; 425 |  asm ("      ESTOP0");                                                 
;----------------------------------------------------------------------

;***************************************************************
;* FNAME: _T1OFINT_ISR                  FR SIZE:   0           *
;*                                                             *
;* FUNCTION ENVIRONMENT                                        *
;*                                                             *
;* FUNCTION PROPERTIES                                         *
;*                            0 Parameter,  0 Auto,  0 SOE     *
;***************************************************************

_T1OFINT_ISR:
	.dwcfi	cfa_offset, -2
	.dwcfi	save_reg_to_mem, 26, 0
        ASP       ; [CPU_] 
        CLRC      PAGE0,OVM             ; [CPU_] 
        CLRC      AMODE                 ; [CPU_] 
      ESTOP0
$C$L32:    
	.dwpsn	file "../DSP281x_common/source/DSP281x_DefaultIsr.c",line 426,column 4,is_stmt,isa 0
;----------------------------------------------------------------------
; 426 | for(;;);                                                               
;----------------------------------------------------------------------
        B         $C$L32,UNC            ; [CPU_] |426| 
        ; branch occurs ; [] |426| 
	.dwattr $C$DW$32, DW_AT_TI_end_file("../DSP281x_common/source/DSP281x_DefaultIsr.c")
	.dwattr $C$DW$32, DW_AT_TI_end_line(0x1ab)
	.dwattr $C$DW$32, DW_AT_TI_end_column(0x01)
	.dwendentry
	.dwendtag $C$DW$32

	.sect	".text:retain"
	.retain
	.retainrefs
	.global	_T1CINT_ISR

$C$DW$33	.dwtag  DW_TAG_subprogram
	.dwattr $C$DW$33, DW_AT_name("T1CINT_ISR")
	.dwattr $C$DW$33, DW_AT_low_pc(_T1CINT_ISR)
	.dwattr $C$DW$33, DW_AT_high_pc(0x00)
	.dwattr $C$DW$33, DW_AT_TI_symbol_name("_T1CINT_ISR")
	.dwattr $C$DW$33, DW_AT_external
	.dwattr $C$DW$33, DW_AT_TI_begin_file("../DSP281x_common/source/DSP281x_DefaultIsr.c")
	.dwattr $C$DW$33, DW_AT_TI_begin_line(0x183)
	.dwattr $C$DW$33, DW_AT_TI_begin_column(0x10)
	.dwattr $C$DW$33, DW_AT_TI_interrupt
	.dwattr $C$DW$33, DW_AT_TI_max_frame_size(-2)
	.dwpsn	file "../DSP281x_common/source/DSP281x_DefaultIsr.c",line 388,column 1,is_stmt,address _T1CINT_ISR,isa 0

	.dwfde $C$DW$CIE, _T1CINT_ISR
;----------------------------------------------------------------------
; 387 | interrupt void T1CINT_ISR(void)    // EV-A                             
; 389 | // Insert ISR Code here                                                
; 391 | // To receive more interrupts from this PIE group, acknowledge this int
;     | errupt                                                                 
; 392 | // PieCtrlRegs.PIEACK.all = PIEACK_GROUP2;                             
; 394 | // Next two lines for debug only to halt the processor here            
; 395 | // Remove after inserting ISR Code                                     
; 396 |  asm ("      ESTOP0");                                                 
;----------------------------------------------------------------------

;***************************************************************
;* FNAME: _T1CINT_ISR                   FR SIZE:   0           *
;*                                                             *
;* FUNCTION ENVIRONMENT                                        *
;*                                                             *
;* FUNCTION PROPERTIES                                         *
;*                            0 Parameter,  0 Auto,  0 SOE     *
;***************************************************************

_T1CINT_ISR:
	.dwcfi	cfa_offset, -2
	.dwcfi	save_reg_to_mem, 26, 0
        ASP       ; [CPU_] 
        CLRC      PAGE0,OVM             ; [CPU_] 
        CLRC      AMODE                 ; [CPU_] 
      ESTOP0
$C$L33:    
	.dwpsn	file "../DSP281x_common/source/DSP281x_DefaultIsr.c",line 397,column 4,is_stmt,isa 0
;----------------------------------------------------------------------
; 397 | for(;;);                                                               
;----------------------------------------------------------------------
        B         $C$L33,UNC            ; [CPU_] |397| 
        ; branch occurs ; [] |397| 
	.dwattr $C$DW$33, DW_AT_TI_end_file("../DSP281x_common/source/DSP281x_DefaultIsr.c")
	.dwattr $C$DW$33, DW_AT_TI_end_line(0x18e)
	.dwattr $C$DW$33, DW_AT_TI_end_column(0x01)
	.dwendentry
	.dwendtag $C$DW$33

	.sect	".text:retain"
	.retain
	.retainrefs
	.global	_SPITXINTA_ISR

$C$DW$34	.dwtag  DW_TAG_subprogram
	.dwattr $C$DW$34, DW_AT_name("SPITXINTA_ISR")
	.dwattr $C$DW$34, DW_AT_low_pc(_SPITXINTA_ISR)
	.dwattr $C$DW$34, DW_AT_high_pc(0x00)
	.dwattr $C$DW$34, DW_AT_TI_symbol_name("_SPITXINTA_ISR")
	.dwattr $C$DW$34, DW_AT_external
	.dwattr $C$DW$34, DW_AT_TI_begin_file("../DSP281x_common/source/DSP281x_DefaultIsr.c")
	.dwattr $C$DW$34, DW_AT_TI_begin_line(0x2fd)
	.dwattr $C$DW$34, DW_AT_TI_begin_column(0x10)
	.dwattr $C$DW$34, DW_AT_TI_interrupt
	.dwattr $C$DW$34, DW_AT_TI_max_frame_size(-2)
	.dwpsn	file "../DSP281x_common/source/DSP281x_DefaultIsr.c",line 766,column 1,is_stmt,address _SPITXINTA_ISR,isa 0

	.dwfde $C$DW$CIE, _SPITXINTA_ISR
;----------------------------------------------------------------------
; 765 | interrupt void SPITXINTA_ISR(void)     // SPI-A                        
; 767 | // Insert ISR Code here                                                
; 769 | // To receive more interrupts from this PIE group, acknowledge this int
;     | errupt                                                                 
; 770 | // PieCtrlRegs.PIEACK.all = PIEACK_GROUP6;                             
; 772 | // Next two lines for debug only to halt the processor here            
; 773 | // Remove after inserting ISR Code                                     
; 774 |  asm ("      ESTOP0");                                                 
;----------------------------------------------------------------------

;***************************************************************
;* FNAME: _SPITXINTA_ISR                FR SIZE:   0           *
;*                                                             *
;* FUNCTION ENVIRONMENT                                        *
;*                                                             *
;* FUNCTION PROPERTIES                                         *
;*                            0 Parameter,  0 Auto,  0 SOE     *
;***************************************************************

_SPITXINTA_ISR:
	.dwcfi	cfa_offset, -2
	.dwcfi	save_reg_to_mem, 26, 0
        ASP       ; [CPU_] 
        CLRC      PAGE0,OVM             ; [CPU_] 
        CLRC      AMODE                 ; [CPU_] 
      ESTOP0
$C$L34:    
	.dwpsn	file "../DSP281x_common/source/DSP281x_DefaultIsr.c",line 775,column 4,is_stmt,isa 0
;----------------------------------------------------------------------
; 775 | for(;;);                                                               
;----------------------------------------------------------------------
        B         $C$L34,UNC            ; [CPU_] |775| 
        ; branch occurs ; [] |775| 
	.dwattr $C$DW$34, DW_AT_TI_end_file("../DSP281x_common/source/DSP281x_DefaultIsr.c")
	.dwattr $C$DW$34, DW_AT_TI_end_line(0x308)
	.dwattr $C$DW$34, DW_AT_TI_end_column(0x01)
	.dwendentry
	.dwendtag $C$DW$34

	.sect	".text:retain"
	.retain
	.retainrefs
	.global	_SPIRXINTA_ISR

$C$DW$35	.dwtag  DW_TAG_subprogram
	.dwattr $C$DW$35, DW_AT_name("SPIRXINTA_ISR")
	.dwattr $C$DW$35, DW_AT_low_pc(_SPIRXINTA_ISR)
	.dwattr $C$DW$35, DW_AT_high_pc(0x00)
	.dwattr $C$DW$35, DW_AT_TI_symbol_name("_SPIRXINTA_ISR")
	.dwattr $C$DW$35, DW_AT_external
	.dwattr $C$DW$35, DW_AT_TI_begin_file("../DSP281x_common/source/DSP281x_DefaultIsr.c")
	.dwattr $C$DW$35, DW_AT_TI_begin_line(0x2ef)
	.dwattr $C$DW$35, DW_AT_TI_begin_column(0x10)
	.dwattr $C$DW$35, DW_AT_TI_interrupt
	.dwattr $C$DW$35, DW_AT_TI_max_frame_size(-2)
	.dwpsn	file "../DSP281x_common/source/DSP281x_DefaultIsr.c",line 752,column 1,is_stmt,address _SPIRXINTA_ISR,isa 0

	.dwfde $C$DW$CIE, _SPIRXINTA_ISR
;----------------------------------------------------------------------
; 751 | interrupt void SPIRXINTA_ISR(void)    // SPI-A                         
; 753 | // Insert ISR Code here                                                
; 755 | // To receive more interrupts from this PIE group, acknowledge this int
;     | errupt                                                                 
; 756 | // PieCtrlRegs.PIEACK.all = PIEACK_GROUP6;                             
; 758 | // Next two lines for debug only to halt the processor here            
; 759 | // Remove after inserting ISR Code                                     
; 760 |  asm ("      ESTOP0");                                                 
;----------------------------------------------------------------------

;***************************************************************
;* FNAME: _SPIRXINTA_ISR                FR SIZE:   0           *
;*                                                             *
;* FUNCTION ENVIRONMENT                                        *
;*                                                             *
;* FUNCTION PROPERTIES                                         *
;*                            0 Parameter,  0 Auto,  0 SOE     *
;***************************************************************

_SPIRXINTA_ISR:
	.dwcfi	cfa_offset, -2
	.dwcfi	save_reg_to_mem, 26, 0
        ASP       ; [CPU_] 
        CLRC      PAGE0,OVM             ; [CPU_] 
        CLRC      AMODE                 ; [CPU_] 
      ESTOP0
$C$L35:    
	.dwpsn	file "../DSP281x_common/source/DSP281x_DefaultIsr.c",line 761,column 4,is_stmt,isa 0
;----------------------------------------------------------------------
; 761 | for(;;);                                                               
;----------------------------------------------------------------------
        B         $C$L35,UNC            ; [CPU_] |761| 
        ; branch occurs ; [] |761| 
	.dwattr $C$DW$35, DW_AT_TI_end_file("../DSP281x_common/source/DSP281x_DefaultIsr.c")
	.dwattr $C$DW$35, DW_AT_TI_end_line(0x2fa)
	.dwattr $C$DW$35, DW_AT_TI_end_column(0x01)
	.dwendentry
	.dwendtag $C$DW$35

	.sect	".text:retain"
	.retain
	.retainrefs
	.global	_SCITXINTB_ISR

$C$DW$36	.dwtag  DW_TAG_subprogram
	.dwattr $C$DW$36, DW_AT_name("SCITXINTB_ISR")
	.dwattr $C$DW$36, DW_AT_low_pc(_SCITXINTB_ISR)
	.dwattr $C$DW$36, DW_AT_high_pc(0x00)
	.dwattr $C$DW$36, DW_AT_TI_symbol_name("_SCITXINTB_ISR")
	.dwattr $C$DW$36, DW_AT_external
	.dwattr $C$DW$36, DW_AT_TI_begin_file("../DSP281x_common/source/DSP281x_DefaultIsr.c")
	.dwattr $C$DW$36, DW_AT_TI_begin_line(0x37b)
	.dwattr $C$DW$36, DW_AT_TI_begin_column(0x10)
	.dwattr $C$DW$36, DW_AT_TI_interrupt
	.dwattr $C$DW$36, DW_AT_TI_max_frame_size(-2)
	.dwpsn	file "../DSP281x_common/source/DSP281x_DefaultIsr.c",line 892,column 1,is_stmt,address _SCITXINTB_ISR,isa 0

	.dwfde $C$DW$CIE, _SCITXINTB_ISR
;----------------------------------------------------------------------
; 891 | interrupt void SCITXINTB_ISR(void)     // SCI-B                        
; 893 | // Insert ISR Code here                                                
; 895 | // To receive more interrupts from this PIE group, acknowledge this int
;     | errupt                                                                 
; 896 | // PieCtrlRegs.PIEACK.all = PIEACK_GROUP9;                             
; 898 | // Next two lines for debug only to halt the processor here            
; 899 | // Remove after inserting ISR Code                                     
; 900 |  asm ("      ESTOP0");                                                 
;----------------------------------------------------------------------

;***************************************************************
;* FNAME: _SCITXINTB_ISR                FR SIZE:   0           *
;*                                                             *
;* FUNCTION ENVIRONMENT                                        *
;*                                                             *
;* FUNCTION PROPERTIES                                         *
;*                            0 Parameter,  0 Auto,  0 SOE     *
;***************************************************************

_SCITXINTB_ISR:
	.dwcfi	cfa_offset, -2
	.dwcfi	save_reg_to_mem, 26, 0
        ASP       ; [CPU_] 
        CLRC      PAGE0,OVM             ; [CPU_] 
        CLRC      AMODE                 ; [CPU_] 
      ESTOP0
$C$L36:    
	.dwpsn	file "../DSP281x_common/source/DSP281x_DefaultIsr.c",line 901,column 4,is_stmt,isa 0
;----------------------------------------------------------------------
; 901 | for(;;);                                                               
;----------------------------------------------------------------------
        B         $C$L36,UNC            ; [CPU_] |901| 
        ; branch occurs ; [] |901| 
	.dwattr $C$DW$36, DW_AT_TI_end_file("../DSP281x_common/source/DSP281x_DefaultIsr.c")
	.dwattr $C$DW$36, DW_AT_TI_end_line(0x387)
	.dwattr $C$DW$36, DW_AT_TI_end_column(0x01)
	.dwendentry
	.dwendtag $C$DW$36

	.sect	".text:retain"
	.retain
	.retainrefs
	.global	_SCITXINTA_ISR

$C$DW$37	.dwtag  DW_TAG_subprogram
	.dwattr $C$DW$37, DW_AT_name("SCITXINTA_ISR")
	.dwattr $C$DW$37, DW_AT_low_pc(_SCITXINTA_ISR)
	.dwattr $C$DW$37, DW_AT_high_pc(0x00)
	.dwattr $C$DW$37, DW_AT_TI_symbol_name("_SCITXINTA_ISR")
	.dwattr $C$DW$37, DW_AT_external
	.dwattr $C$DW$37, DW_AT_TI_begin_file("../DSP281x_common/source/DSP281x_DefaultIsr.c")
	.dwattr $C$DW$37, DW_AT_TI_begin_line(0x35c)
	.dwattr $C$DW$37, DW_AT_TI_begin_column(0x10)
	.dwattr $C$DW$37, DW_AT_TI_interrupt
	.dwattr $C$DW$37, DW_AT_TI_max_frame_size(-2)
	.dwpsn	file "../DSP281x_common/source/DSP281x_DefaultIsr.c",line 861,column 1,is_stmt,address _SCITXINTA_ISR,isa 0

	.dwfde $C$DW$CIE, _SCITXINTA_ISR
;----------------------------------------------------------------------
; 860 | interrupt void SCITXINTA_ISR(void)     // SCI-A                        
; 862 | // Insert ISR Code here                                                
; 864 | // To receive more interrupts from this PIE group, acknowledge this int
;     | errupt                                                                 
; 865 | // PieCtrlRegs.PIEACK.all = PIEACK_GROUP9;                             
; 867 | // Next two lines for debug only to halt the processor here            
; 868 | // Remove after inserting ISR Code                                     
; 869 |  asm ("      ESTOP0");                                                 
;----------------------------------------------------------------------

;***************************************************************
;* FNAME: _SCITXINTA_ISR                FR SIZE:   0           *
;*                                                             *
;* FUNCTION ENVIRONMENT                                        *
;*                                                             *
;* FUNCTION PROPERTIES                                         *
;*                            0 Parameter,  0 Auto,  0 SOE     *
;***************************************************************

_SCITXINTA_ISR:
	.dwcfi	cfa_offset, -2
	.dwcfi	save_reg_to_mem, 26, 0
        ASP       ; [CPU_] 
        CLRC      PAGE0,OVM             ; [CPU_] 
        CLRC      AMODE                 ; [CPU_] 
      ESTOP0
$C$L37:    
	.dwpsn	file "../DSP281x_common/source/DSP281x_DefaultIsr.c",line 870,column 4,is_stmt,isa 0
;----------------------------------------------------------------------
; 870 | for(;;);                                                               
;----------------------------------------------------------------------
        B         $C$L37,UNC            ; [CPU_] |870| 
        ; branch occurs ; [] |870| 
	.dwattr $C$DW$37, DW_AT_TI_end_file("../DSP281x_common/source/DSP281x_DefaultIsr.c")
	.dwattr $C$DW$37, DW_AT_TI_end_line(0x368)
	.dwattr $C$DW$37, DW_AT_TI_end_column(0x01)
	.dwendentry
	.dwendtag $C$DW$37

	.sect	".text:retain"
	.retain
	.retainrefs
	.global	_SCIRXINTB_ISR

$C$DW$38	.dwtag  DW_TAG_subprogram
	.dwattr $C$DW$38, DW_AT_name("SCIRXINTB_ISR")
	.dwattr $C$DW$38, DW_AT_low_pc(_SCIRXINTB_ISR)
	.dwattr $C$DW$38, DW_AT_high_pc(0x00)
	.dwattr $C$DW$38, DW_AT_TI_symbol_name("_SCIRXINTB_ISR")
	.dwattr $C$DW$38, DW_AT_external
	.dwattr $C$DW$38, DW_AT_TI_begin_file("../DSP281x_common/source/DSP281x_DefaultIsr.c")
	.dwattr $C$DW$38, DW_AT_TI_begin_line(0x36c)
	.dwattr $C$DW$38, DW_AT_TI_begin_column(0x10)
	.dwattr $C$DW$38, DW_AT_TI_interrupt
	.dwattr $C$DW$38, DW_AT_TI_max_frame_size(-2)
	.dwpsn	file "../DSP281x_common/source/DSP281x_DefaultIsr.c",line 877,column 1,is_stmt,address _SCIRXINTB_ISR,isa 0

	.dwfde $C$DW$CIE, _SCIRXINTB_ISR
;----------------------------------------------------------------------
; 876 | interrupt void SCIRXINTB_ISR(void)     // SCI-B                        
; 878 | // Insert ISR Code here                                                
; 880 | // To receive more interrupts from this PIE group, acknowledge this int
;     | errupt                                                                 
; 881 | // PieCtrlRegs.PIEACK.all = PIEACK_GROUP9;                             
; 883 | // Next two lines for debug only to halt the processor here            
; 884 | // Remove after inserting ISR Code                                     
; 885 |  asm ("      ESTOP0");                                                 
;----------------------------------------------------------------------

;***************************************************************
;* FNAME: _SCIRXINTB_ISR                FR SIZE:   0           *
;*                                                             *
;* FUNCTION ENVIRONMENT                                        *
;*                                                             *
;* FUNCTION PROPERTIES                                         *
;*                            0 Parameter,  0 Auto,  0 SOE     *
;***************************************************************

_SCIRXINTB_ISR:
	.dwcfi	cfa_offset, -2
	.dwcfi	save_reg_to_mem, 26, 0
        ASP       ; [CPU_] 
        CLRC      PAGE0,OVM             ; [CPU_] 
        CLRC      AMODE                 ; [CPU_] 
      ESTOP0
$C$L38:    
	.dwpsn	file "../DSP281x_common/source/DSP281x_DefaultIsr.c",line 886,column 4,is_stmt,isa 0
;----------------------------------------------------------------------
; 886 | for(;;);                                                               
;----------------------------------------------------------------------
        B         $C$L38,UNC            ; [CPU_] |886| 
        ; branch occurs ; [] |886| 
	.dwattr $C$DW$38, DW_AT_TI_end_file("../DSP281x_common/source/DSP281x_DefaultIsr.c")
	.dwattr $C$DW$38, DW_AT_TI_end_line(0x378)
	.dwattr $C$DW$38, DW_AT_TI_end_column(0x01)
	.dwendentry
	.dwendtag $C$DW$38

	.sect	".text:retain"
	.retain
	.retainrefs
	.global	_SCIRXINTA_ISR

$C$DW$39	.dwtag  DW_TAG_subprogram
	.dwattr $C$DW$39, DW_AT_name("SCIRXINTA_ISR")
	.dwattr $C$DW$39, DW_AT_low_pc(_SCIRXINTA_ISR)
	.dwattr $C$DW$39, DW_AT_high_pc(0x00)
	.dwattr $C$DW$39, DW_AT_TI_symbol_name("_SCIRXINTA_ISR")
	.dwattr $C$DW$39, DW_AT_external
	.dwattr $C$DW$39, DW_AT_TI_begin_file("../DSP281x_common/source/DSP281x_DefaultIsr.c")
	.dwattr $C$DW$39, DW_AT_TI_begin_line(0x34d)
	.dwattr $C$DW$39, DW_AT_TI_begin_column(0x10)
	.dwattr $C$DW$39, DW_AT_TI_interrupt
	.dwattr $C$DW$39, DW_AT_TI_max_frame_size(-2)
	.dwpsn	file "../DSP281x_common/source/DSP281x_DefaultIsr.c",line 846,column 1,is_stmt,address _SCIRXINTA_ISR,isa 0

	.dwfde $C$DW$CIE, _SCIRXINTA_ISR
;----------------------------------------------------------------------
; 845 | interrupt void SCIRXINTA_ISR(void)     // SCI-A                        
; 847 | // Insert ISR Code here                                                
; 849 | // To receive more interrupts from this PIE group, acknowledge this int
;     | errupt                                                                 
; 850 | // PieCtrlRegs.PIEACK.all = PIEACK_GROUP9;                             
; 852 | // Next two lines for debug only to halt the processor here            
; 853 | // Remove after inserting ISR Code                                     
; 854 |  asm ("      ESTOP0");                                                 
;----------------------------------------------------------------------

;***************************************************************
;* FNAME: _SCIRXINTA_ISR                FR SIZE:   0           *
;*                                                             *
;* FUNCTION ENVIRONMENT                                        *
;*                                                             *
;* FUNCTION PROPERTIES                                         *
;*                            0 Parameter,  0 Auto,  0 SOE     *
;***************************************************************

_SCIRXINTA_ISR:
	.dwcfi	cfa_offset, -2
	.dwcfi	save_reg_to_mem, 26, 0
        ASP       ; [CPU_] 
        CLRC      PAGE0,OVM             ; [CPU_] 
        CLRC      AMODE                 ; [CPU_] 
      ESTOP0
$C$L39:    
	.dwpsn	file "../DSP281x_common/source/DSP281x_DefaultIsr.c",line 855,column 4,is_stmt,isa 0
;----------------------------------------------------------------------
; 855 | for(;;);                                                               
;----------------------------------------------------------------------
        B         $C$L39,UNC            ; [CPU_] |855| 
        ; branch occurs ; [] |855| 
	.dwattr $C$DW$39, DW_AT_TI_end_file("../DSP281x_common/source/DSP281x_DefaultIsr.c")
	.dwattr $C$DW$39, DW_AT_TI_end_line(0x359)
	.dwattr $C$DW$39, DW_AT_TI_end_column(0x01)
	.dwendentry
	.dwendtag $C$DW$39

	.sect	".text:retain"
	.retain
	.retainrefs
	.global	_RTOSINT_ISR

$C$DW$40	.dwtag  DW_TAG_subprogram
	.dwattr $C$DW$40, DW_AT_name("RTOSINT_ISR")
	.dwattr $C$DW$40, DW_AT_low_pc(_RTOSINT_ISR)
	.dwattr $C$DW$40, DW_AT_high_pc(0x00)
	.dwattr $C$DW$40, DW_AT_TI_symbol_name("_RTOSINT_ISR")
	.dwattr $C$DW$40, DW_AT_external
	.dwattr $C$DW$40, DW_AT_TI_begin_file("../DSP281x_common/source/DSP281x_DefaultIsr.c")
	.dwattr $C$DW$40, DW_AT_TI_begin_line(0x32)
	.dwattr $C$DW$40, DW_AT_TI_begin_column(0x10)
	.dwattr $C$DW$40, DW_AT_TI_interrupt
	.dwattr $C$DW$40, DW_AT_TI_max_frame_size(-2)
	.dwpsn	file "../DSP281x_common/source/DSP281x_DefaultIsr.c",line 51,column 1,is_stmt,address _RTOSINT_ISR,isa 0

	.dwfde $C$DW$CIE, _RTOSINT_ISR
;----------------------------------------------------------------------
;  50 | interrupt void RTOSINT_ISR(void)   // RTOS interrupt                   
;  52 | // Insert ISR Code here                                                
;  54 | // Next two lines for debug only to halt the processor here            
;  55 | // Remove after inserting ISR Code                                     
;  56 |  asm ("      ESTOP0");                                                 
;----------------------------------------------------------------------

;***************************************************************
;* FNAME: _RTOSINT_ISR                  FR SIZE:   0           *
;*                                                             *
;* FUNCTION ENVIRONMENT                                        *
;*                                                             *
;* FUNCTION PROPERTIES                                         *
;*                            0 Parameter,  0 Auto,  0 SOE     *
;***************************************************************

_RTOSINT_ISR:
	.dwcfi	cfa_offset, -2
	.dwcfi	save_reg_to_mem, 26, 0
        ASP       ; [CPU_] 
        CLRC      PAGE0,OVM             ; [CPU_] 
        CLRC      AMODE                 ; [CPU_] 
      ESTOP0
$C$L40:    
	.dwpsn	file "../DSP281x_common/source/DSP281x_DefaultIsr.c",line 57,column 4,is_stmt,isa 0
;----------------------------------------------------------------------
;  57 | for(;;);                                                               
;----------------------------------------------------------------------
        B         $C$L40,UNC            ; [CPU_] |57| 
        ; branch occurs ; [] |57| 
	.dwattr $C$DW$40, DW_AT_TI_end_file("../DSP281x_common/source/DSP281x_DefaultIsr.c")
	.dwattr $C$DW$40, DW_AT_TI_end_line(0x3a)
	.dwattr $C$DW$40, DW_AT_TI_end_column(0x01)
	.dwendentry
	.dwendtag $C$DW$40

	.sect	".text:retain"
	.retain
	.retainrefs
	.global	_PIE_RESERVED

$C$DW$41	.dwtag  DW_TAG_subprogram
	.dwattr $C$DW$41, DW_AT_name("PIE_RESERVED")
	.dwattr $C$DW$41, DW_AT_low_pc(_PIE_RESERVED)
	.dwattr $C$DW$41, DW_AT_high_pc(0x00)
	.dwattr $C$DW$41, DW_AT_TI_symbol_name("_PIE_RESERVED")
	.dwattr $C$DW$41, DW_AT_external
	.dwattr $C$DW$41, DW_AT_TI_begin_file("../DSP281x_common/source/DSP281x_DefaultIsr.c")
	.dwattr $C$DW$41, DW_AT_TI_begin_line(0x3d8)
	.dwattr $C$DW$41, DW_AT_TI_begin_column(0x10)
	.dwattr $C$DW$41, DW_AT_TI_interrupt
	.dwattr $C$DW$41, DW_AT_TI_max_frame_size(-2)
	.dwpsn	file "../DSP281x_common/source/DSP281x_DefaultIsr.c",line 985,column 1,is_stmt,address _PIE_RESERVED,isa 0

	.dwfde $C$DW$CIE, _PIE_RESERVED
;----------------------------------------------------------------------
; 984 | interrupt void PIE_RESERVED(void)  // Reserved space.  For test.       
; 986 | asm ("      ESTOP0");                                                  
;----------------------------------------------------------------------

;***************************************************************
;* FNAME: _PIE_RESERVED                 FR SIZE:   0           *
;*                                                             *
;* FUNCTION ENVIRONMENT                                        *
;*                                                             *
;* FUNCTION PROPERTIES                                         *
;*                            0 Parameter,  0 Auto,  0 SOE     *
;***************************************************************

_PIE_RESERVED:
	.dwcfi	cfa_offset, -2
	.dwcfi	save_reg_to_mem, 26, 0
        ASP       ; [CPU_] 
        CLRC      PAGE0,OVM             ; [CPU_] 
        CLRC      AMODE                 ; [CPU_] 
      ESTOP0
$C$L41:    
	.dwpsn	file "../DSP281x_common/source/DSP281x_DefaultIsr.c",line 987,column 3,is_stmt,isa 0
;----------------------------------------------------------------------
; 987 | for(;;);                                                               
;----------------------------------------------------------------------
        B         $C$L41,UNC            ; [CPU_] |987| 
        ; branch occurs ; [] |987| 
	.dwattr $C$DW$41, DW_AT_TI_end_file("../DSP281x_common/source/DSP281x_DefaultIsr.c")
	.dwattr $C$DW$41, DW_AT_TI_end_line(0x3dc)
	.dwattr $C$DW$41, DW_AT_TI_end_column(0x01)
	.dwendentry
	.dwendtag $C$DW$41

	.sect	".text:retain"
	.retain
	.retainrefs
	.global	_PDPINTB_ISR

$C$DW$42	.dwtag  DW_TAG_subprogram
	.dwattr $C$DW$42, DW_AT_name("PDPINTB_ISR")
	.dwattr $C$DW$42, DW_AT_low_pc(_PDPINTB_ISR)
	.dwattr $C$DW$42, DW_AT_high_pc(0x00)
	.dwattr $C$DW$42, DW_AT_TI_symbol_name("_PDPINTB_ISR")
	.dwattr $C$DW$42, DW_AT_external
	.dwattr $C$DW$42, DW_AT_TI_begin_file("../DSP281x_common/source/DSP281x_DefaultIsr.c")
	.dwattr $C$DW$42, DW_AT_TI_begin_line(0xeb)
	.dwattr $C$DW$42, DW_AT_TI_begin_column(0x11)
	.dwattr $C$DW$42, DW_AT_TI_interrupt
	.dwattr $C$DW$42, DW_AT_TI_max_frame_size(-2)
	.dwpsn	file "../DSP281x_common/source/DSP281x_DefaultIsr.c",line 236,column 1,is_stmt,address _PDPINTB_ISR,isa 0

	.dwfde $C$DW$CIE, _PDPINTB_ISR
;----------------------------------------------------------------------
; 235 | interrupt void  PDPINTB_ISR(void)   // EV-B                            
; 237 | // Insert ISR Code here                                                
; 239 | // To receive more interrupts from this PIE group, acknowledge this int
;     | errupt                                                                 
; 240 | // PieCtrlRegs.PIEACK.all = PIEACK_GROUP1;                             
; 242 | // Next two lines for debug only to halt the processor here            
; 243 | // Remove after inserting ISR Code                                     
; 244 |  asm ("      ESTOP0");                                                 
;----------------------------------------------------------------------

;***************************************************************
;* FNAME: _PDPINTB_ISR                  FR SIZE:   0           *
;*                                                             *
;* FUNCTION ENVIRONMENT                                        *
;*                                                             *
;* FUNCTION PROPERTIES                                         *
;*                            0 Parameter,  0 Auto,  0 SOE     *
;***************************************************************

_PDPINTB_ISR:
	.dwcfi	cfa_offset, -2
	.dwcfi	save_reg_to_mem, 26, 0
        ASP       ; [CPU_] 
        CLRC      PAGE0,OVM             ; [CPU_] 
        CLRC      AMODE                 ; [CPU_] 
      ESTOP0
$C$L42:    
	.dwpsn	file "../DSP281x_common/source/DSP281x_DefaultIsr.c",line 245,column 4,is_stmt,isa 0
;----------------------------------------------------------------------
; 245 | for(;;);                                                               
;----------------------------------------------------------------------
        B         $C$L42,UNC            ; [CPU_] |245| 
        ; branch occurs ; [] |245| 
	.dwattr $C$DW$42, DW_AT_TI_end_file("../DSP281x_common/source/DSP281x_DefaultIsr.c")
	.dwattr $C$DW$42, DW_AT_TI_end_line(0xf6)
	.dwattr $C$DW$42, DW_AT_TI_end_column(0x01)
	.dwendentry
	.dwendtag $C$DW$42

	.sect	".text:retain"
	.retain
	.retainrefs
	.global	_PDPINTA_ISR

$C$DW$43	.dwtag  DW_TAG_subprogram
	.dwattr $C$DW$43, DW_AT_name("PDPINTA_ISR")
	.dwattr $C$DW$43, DW_AT_low_pc(_PDPINTA_ISR)
	.dwattr $C$DW$43, DW_AT_high_pc(0x00)
	.dwattr $C$DW$43, DW_AT_TI_symbol_name("_PDPINTA_ISR")
	.dwattr $C$DW$43, DW_AT_external
	.dwattr $C$DW$43, DW_AT_TI_begin_file("../DSP281x_common/source/DSP281x_DefaultIsr.c")
	.dwattr $C$DW$43, DW_AT_TI_begin_line(0xdd)
	.dwattr $C$DW$43, DW_AT_TI_begin_column(0x10)
	.dwattr $C$DW$43, DW_AT_TI_interrupt
	.dwattr $C$DW$43, DW_AT_TI_max_frame_size(-2)
	.dwpsn	file "../DSP281x_common/source/DSP281x_DefaultIsr.c",line 222,column 1,is_stmt,address _PDPINTA_ISR,isa 0

	.dwfde $C$DW$CIE, _PDPINTA_ISR
;----------------------------------------------------------------------
; 221 | interrupt void PDPINTA_ISR( void )    // EV-A                          
; 223 | // Insert ISR Code here                                                
; 225 | // To receive more interrupts from this PIE group, acknowledge this int
;     | errupt                                                                 
; 226 | // PieCtrlRegs.PIEACK.all = PIEACK_GROUP1;                             
; 228 | // Next two lines for debug only to halt the processor here            
; 229 | // Remove after inserting ISR Code                                     
; 230 |  asm ("      ESTOP0");                                                 
;----------------------------------------------------------------------

;***************************************************************
;* FNAME: _PDPINTA_ISR                  FR SIZE:   0           *
;*                                                             *
;* FUNCTION ENVIRONMENT                                        *
;*                                                             *
;* FUNCTION PROPERTIES                                         *
;*                            0 Parameter,  0 Auto,  0 SOE     *
;***************************************************************

_PDPINTA_ISR:
	.dwcfi	cfa_offset, -2
	.dwcfi	save_reg_to_mem, 26, 0
        ASP       ; [CPU_] 
        CLRC      PAGE0,OVM             ; [CPU_] 
        CLRC      AMODE                 ; [CPU_] 
      ESTOP0
$C$L43:    
	.dwpsn	file "../DSP281x_common/source/DSP281x_DefaultIsr.c",line 231,column 4,is_stmt,isa 0
;----------------------------------------------------------------------
; 231 | for(;;);                                                               
;----------------------------------------------------------------------
        B         $C$L43,UNC            ; [CPU_] |231| 
        ; branch occurs ; [] |231| 
	.dwattr $C$DW$43, DW_AT_TI_end_file("../DSP281x_common/source/DSP281x_DefaultIsr.c")
	.dwattr $C$DW$43, DW_AT_TI_end_line(0xe8)
	.dwattr $C$DW$43, DW_AT_TI_end_column(0x01)
	.dwendentry
	.dwendtag $C$DW$43

	.sect	".text:retain"
	.retain
	.retainrefs
	.global	_NMI_ISR

$C$DW$44	.dwtag  DW_TAG_subprogram
	.dwattr $C$DW$44, DW_AT_name("NMI_ISR")
	.dwattr $C$DW$44, DW_AT_low_pc(_NMI_ISR)
	.dwattr $C$DW$44, DW_AT_high_pc(0x00)
	.dwattr $C$DW$44, DW_AT_TI_symbol_name("_NMI_ISR")
	.dwattr $C$DW$44, DW_AT_external
	.dwattr $C$DW$44, DW_AT_TI_begin_file("../DSP281x_common/source/DSP281x_DefaultIsr.c")
	.dwattr $C$DW$44, DW_AT_TI_begin_line(0x46)
	.dwattr $C$DW$44, DW_AT_TI_begin_column(0x10)
	.dwattr $C$DW$44, DW_AT_TI_interrupt
	.dwattr $C$DW$44, DW_AT_TI_max_frame_size(-2)
	.dwpsn	file "../DSP281x_common/source/DSP281x_DefaultIsr.c",line 71,column 1,is_stmt,address _NMI_ISR,isa 0

	.dwfde $C$DW$CIE, _NMI_ISR
;----------------------------------------------------------------------
;  70 | interrupt void NMI_ISR(void)       // Non-maskable interrupt           
;  72 | // Insert ISR Code here                                                
;  74 | // Next two lines for debug only to halt the processor here            
;  75 | // Remove after inserting ISR Code                                     
;  76 |  asm ("      ESTOP0");                                                 
;----------------------------------------------------------------------

;***************************************************************
;* FNAME: _NMI_ISR                      FR SIZE:   0           *
;*                                                             *
;* FUNCTION ENVIRONMENT                                        *
;*                                                             *
;* FUNCTION PROPERTIES                                         *
;*                            0 Parameter,  0 Auto,  0 SOE     *
;***************************************************************

_NMI_ISR:
	.dwcfi	cfa_offset, -2
	.dwcfi	save_reg_to_mem, 26, 0
        ASP       ; [CPU_] 
        CLRC      PAGE0,OVM             ; [CPU_] 
        CLRC      AMODE                 ; [CPU_] 
      ESTOP0
$C$L44:    
	.dwpsn	file "../DSP281x_common/source/DSP281x_DefaultIsr.c",line 77,column 4,is_stmt,isa 0
;----------------------------------------------------------------------
;  77 | for(;;);                                                               
;----------------------------------------------------------------------
        B         $C$L44,UNC            ; [CPU_] |77| 
        ; branch occurs ; [] |77| 
	.dwattr $C$DW$44, DW_AT_TI_end_file("../DSP281x_common/source/DSP281x_DefaultIsr.c")
	.dwattr $C$DW$44, DW_AT_TI_end_line(0x4e)
	.dwattr $C$DW$44, DW_AT_TI_end_column(0x01)
	.dwendentry
	.dwendtag $C$DW$44

	.sect	".text:retain"
	.retain
	.retainrefs
	.global	_MXINTA_ISR

$C$DW$45	.dwtag  DW_TAG_subprogram
	.dwattr $C$DW$45, DW_AT_name("MXINTA_ISR")
	.dwattr $C$DW$45, DW_AT_low_pc(_MXINTA_ISR)
	.dwattr $C$DW$45, DW_AT_high_pc(0x00)
	.dwattr $C$DW$45, DW_AT_TI_symbol_name("_MXINTA_ISR")
	.dwattr $C$DW$45, DW_AT_external
	.dwattr $C$DW$45, DW_AT_TI_begin_file("../DSP281x_common/source/DSP281x_DefaultIsr.c")
	.dwattr $C$DW$45, DW_AT_TI_begin_line(0x31c)
	.dwattr $C$DW$45, DW_AT_TI_begin_column(0x10)
	.dwattr $C$DW$45, DW_AT_TI_interrupt
	.dwattr $C$DW$45, DW_AT_TI_max_frame_size(-2)
	.dwpsn	file "../DSP281x_common/source/DSP281x_DefaultIsr.c",line 797,column 1,is_stmt,address _MXINTA_ISR,isa 0

	.dwfde $C$DW$CIE, _MXINTA_ISR
;----------------------------------------------------------------------
; 796 | interrupt void MXINTA_ISR(void)     // McBSP-A                         
; 798 | // Insert ISR Code here                                                
; 800 | // To receive more interrupts from this PIE group, acknowledge this int
;     | errupt                                                                 
; 801 | // PieCtrlRegs.PIEACK.all = PIEACK_GROUP6;                             
; 803 | // Next two lines for debug only to halt the processor here            
; 804 | // Remove after inserting ISR Code                                     
; 805 |  asm ("      ESTOP0");                                                 
;----------------------------------------------------------------------

;***************************************************************
;* FNAME: _MXINTA_ISR                   FR SIZE:   0           *
;*                                                             *
;* FUNCTION ENVIRONMENT                                        *
;*                                                             *
;* FUNCTION PROPERTIES                                         *
;*                            0 Parameter,  0 Auto,  0 SOE     *
;***************************************************************

_MXINTA_ISR:
	.dwcfi	cfa_offset, -2
	.dwcfi	save_reg_to_mem, 26, 0
        ASP       ; [CPU_] 
        CLRC      PAGE0,OVM             ; [CPU_] 
        CLRC      AMODE                 ; [CPU_] 
      ESTOP0
$C$L45:    
	.dwpsn	file "../DSP281x_common/source/DSP281x_DefaultIsr.c",line 806,column 4,is_stmt,isa 0
;----------------------------------------------------------------------
; 806 | for(;;);                                                               
;----------------------------------------------------------------------
        B         $C$L45,UNC            ; [CPU_] |806| 
        ; branch occurs ; [] |806| 
	.dwattr $C$DW$45, DW_AT_TI_end_file("../DSP281x_common/source/DSP281x_DefaultIsr.c")
	.dwattr $C$DW$45, DW_AT_TI_end_line(0x327)
	.dwattr $C$DW$45, DW_AT_TI_end_column(0x01)
	.dwendentry
	.dwendtag $C$DW$45

	.sect	".text:retain"
	.retain
	.retainrefs
	.global	_MRINTA_ISR

$C$DW$46	.dwtag  DW_TAG_subprogram
	.dwattr $C$DW$46, DW_AT_name("MRINTA_ISR")
	.dwattr $C$DW$46, DW_AT_low_pc(_MRINTA_ISR)
	.dwattr $C$DW$46, DW_AT_high_pc(0x00)
	.dwattr $C$DW$46, DW_AT_TI_symbol_name("_MRINTA_ISR")
	.dwattr $C$DW$46, DW_AT_external
	.dwattr $C$DW$46, DW_AT_TI_begin_file("../DSP281x_common/source/DSP281x_DefaultIsr.c")
	.dwattr $C$DW$46, DW_AT_TI_begin_line(0x30e)
	.dwattr $C$DW$46, DW_AT_TI_begin_column(0x10)
	.dwattr $C$DW$46, DW_AT_TI_interrupt
	.dwattr $C$DW$46, DW_AT_TI_max_frame_size(-2)
	.dwpsn	file "../DSP281x_common/source/DSP281x_DefaultIsr.c",line 783,column 1,is_stmt,address _MRINTA_ISR,isa 0

	.dwfde $C$DW$CIE, _MRINTA_ISR
;----------------------------------------------------------------------
; 782 | interrupt void MRINTA_ISR(void)     // McBSP-A                         
; 784 | // Insert ISR Code here                                                
; 786 | // To receive more interrupts from this PIE group, acknowledge this int
;     | errupt                                                                 
; 787 | // PieCtrlRegs.PIEACK.all = PIEACK_GROUP6;                             
; 789 | // Next two lines for debug only to halt the processor here            
; 790 | // Remove after inserting ISR Code                                     
; 791 |  asm ("      ESTOP0");                                                 
;----------------------------------------------------------------------

;***************************************************************
;* FNAME: _MRINTA_ISR                   FR SIZE:   0           *
;*                                                             *
;* FUNCTION ENVIRONMENT                                        *
;*                                                             *
;* FUNCTION PROPERTIES                                         *
;*                            0 Parameter,  0 Auto,  0 SOE     *
;***************************************************************

_MRINTA_ISR:
	.dwcfi	cfa_offset, -2
	.dwcfi	save_reg_to_mem, 26, 0
        ASP       ; [CPU_] 
        CLRC      PAGE0,OVM             ; [CPU_] 
        CLRC      AMODE                 ; [CPU_] 
      ESTOP0
$C$L46:    
	.dwpsn	file "../DSP281x_common/source/DSP281x_DefaultIsr.c",line 792,column 4,is_stmt,isa 0
;----------------------------------------------------------------------
; 792 | for(;;);                                                               
;----------------------------------------------------------------------
        B         $C$L46,UNC            ; [CPU_] |792| 
        ; branch occurs ; [] |792| 
	.dwattr $C$DW$46, DW_AT_TI_end_file("../DSP281x_common/source/DSP281x_DefaultIsr.c")
	.dwattr $C$DW$46, DW_AT_TI_end_line(0x319)
	.dwattr $C$DW$46, DW_AT_TI_end_column(0x01)
	.dwendentry
	.dwendtag $C$DW$46

	.sect	".text:retain"
	.retain
	.retainrefs
	.global	_INT14_ISR

$C$DW$47	.dwtag  DW_TAG_subprogram
	.dwattr $C$DW$47, DW_AT_name("INT14_ISR")
	.dwattr $C$DW$47, DW_AT_low_pc(_INT14_ISR)
	.dwattr $C$DW$47, DW_AT_high_pc(0x00)
	.dwattr $C$DW$47, DW_AT_TI_symbol_name("_INT14_ISR")
	.dwattr $C$DW$47, DW_AT_external
	.dwattr $C$DW$47, DW_AT_TI_begin_file("../DSP281x_common/source/DSP281x_DefaultIsr.c")
	.dwattr $C$DW$47, DW_AT_TI_begin_line(0x1e)
	.dwattr $C$DW$47, DW_AT_TI_begin_column(0x10)
	.dwattr $C$DW$47, DW_AT_TI_interrupt
	.dwattr $C$DW$47, DW_AT_TI_max_frame_size(-2)
	.dwpsn	file "../DSP281x_common/source/DSP281x_DefaultIsr.c",line 31,column 1,is_stmt,address _INT14_ISR,isa 0

	.dwfde $C$DW$CIE, _INT14_ISR
;----------------------------------------------------------------------
;  30 | interrupt void INT14_ISR(void)     // CPU-Timer2                       
;  32 | // Insert ISR Code here                                                
;  34 | // Next two lines for debug only to halt the processor here            
;  35 | // Remove after inserting ISR Code                                     
;  36 |    asm ("      ESTOP0");                                               
;----------------------------------------------------------------------

;***************************************************************
;* FNAME: _INT14_ISR                    FR SIZE:   0           *
;*                                                             *
;* FUNCTION ENVIRONMENT                                        *
;*                                                             *
;* FUNCTION PROPERTIES                                         *
;*                            0 Parameter,  0 Auto,  0 SOE     *
;***************************************************************

_INT14_ISR:
	.dwcfi	cfa_offset, -2
	.dwcfi	save_reg_to_mem, 26, 0
        ASP       ; [CPU_] 
        CLRC      PAGE0,OVM             ; [CPU_] 
        CLRC      AMODE                 ; [CPU_] 
      ESTOP0
$C$L47:    
	.dwpsn	file "../DSP281x_common/source/DSP281x_DefaultIsr.c",line 37,column 6,is_stmt,isa 0
;----------------------------------------------------------------------
;  37 | for(;;);                                                               
;----------------------------------------------------------------------
        B         $C$L47,UNC            ; [CPU_] |37| 
        ; branch occurs ; [] |37| 
	.dwattr $C$DW$47, DW_AT_TI_end_file("../DSP281x_common/source/DSP281x_DefaultIsr.c")
	.dwattr $C$DW$47, DW_AT_TI_end_line(0x26)
	.dwattr $C$DW$47, DW_AT_TI_end_column(0x01)
	.dwendentry
	.dwendtag $C$DW$47

	.sect	".text:retain"
	.retain
	.retainrefs
	.global	_INT13_ISR

$C$DW$48	.dwtag  DW_TAG_subprogram
	.dwattr $C$DW$48, DW_AT_name("INT13_ISR")
	.dwattr $C$DW$48, DW_AT_low_pc(_INT13_ISR)
	.dwattr $C$DW$48, DW_AT_high_pc(0x00)
	.dwattr $C$DW$48, DW_AT_TI_symbol_name("_INT13_ISR")
	.dwattr $C$DW$48, DW_AT_external
	.dwattr $C$DW$48, DW_AT_TI_begin_file("../DSP281x_common/source/DSP281x_DefaultIsr.c")
	.dwattr $C$DW$48, DW_AT_TI_begin_line(0x13)
	.dwattr $C$DW$48, DW_AT_TI_begin_column(0x10)
	.dwattr $C$DW$48, DW_AT_TI_interrupt
	.dwattr $C$DW$48, DW_AT_TI_max_frame_size(-2)
	.dwpsn	file "../DSP281x_common/source/DSP281x_DefaultIsr.c",line 20,column 1,is_stmt,address _INT13_ISR,isa 0

	.dwfde $C$DW$CIE, _INT13_ISR
;----------------------------------------------------------------------
;  19 | interrupt void INT13_ISR(void)     // INT13 or CPU-Timer1              
;  21 | // Insert ISR Code here                                                
;  23 | // Next two lines for debug only to halt the processor here            
;  24 | // Remove after inserting ISR Code                                     
;  25 |    asm ("      ESTOP0");                                               
;----------------------------------------------------------------------

;***************************************************************
;* FNAME: _INT13_ISR                    FR SIZE:   0           *
;*                                                             *
;* FUNCTION ENVIRONMENT                                        *
;*                                                             *
;* FUNCTION PROPERTIES                                         *
;*                            0 Parameter,  0 Auto,  0 SOE     *
;***************************************************************

_INT13_ISR:
	.dwcfi	cfa_offset, -2
	.dwcfi	save_reg_to_mem, 26, 0
        ASP       ; [CPU_] 
        CLRC      PAGE0,OVM             ; [CPU_] 
        CLRC      AMODE                 ; [CPU_] 
      ESTOP0
$C$L48:    
	.dwpsn	file "../DSP281x_common/source/DSP281x_DefaultIsr.c",line 26,column 6,is_stmt,isa 0
;----------------------------------------------------------------------
;  26 | for(;;);                                                               
;----------------------------------------------------------------------
        B         $C$L48,UNC            ; [CPU_] |26| 
        ; branch occurs ; [] |26| 
	.dwattr $C$DW$48, DW_AT_TI_end_file("../DSP281x_common/source/DSP281x_DefaultIsr.c")
	.dwattr $C$DW$48, DW_AT_TI_end_line(0x1b)
	.dwattr $C$DW$48, DW_AT_TI_end_column(0x01)
	.dwendentry
	.dwendtag $C$DW$48

	.sect	".text:retain"
	.retain
	.retainrefs
	.global	_ILLEGAL_ISR

$C$DW$49	.dwtag  DW_TAG_subprogram
	.dwattr $C$DW$49, DW_AT_name("ILLEGAL_ISR")
	.dwattr $C$DW$49, DW_AT_low_pc(_ILLEGAL_ISR)
	.dwattr $C$DW$49, DW_AT_high_pc(0x00)
	.dwattr $C$DW$49, DW_AT_TI_symbol_name("_ILLEGAL_ISR")
	.dwattr $C$DW$49, DW_AT_external
	.dwattr $C$DW$49, DW_AT_TI_begin_file("../DSP281x_common/source/DSP281x_DefaultIsr.c")
	.dwattr $C$DW$49, DW_AT_TI_begin_line(0x50)
	.dwattr $C$DW$49, DW_AT_TI_begin_column(0x10)
	.dwattr $C$DW$49, DW_AT_TI_interrupt
	.dwattr $C$DW$49, DW_AT_TI_max_frame_size(-2)
	.dwpsn	file "../DSP281x_common/source/DSP281x_DefaultIsr.c",line 81,column 1,is_stmt,address _ILLEGAL_ISR,isa 0

	.dwfde $C$DW$CIE, _ILLEGAL_ISR
;----------------------------------------------------------------------
;  80 | interrupt void ILLEGAL_ISR(void)   // Illegal operation TRAP           
;  82 | // Insert ISR Code here                                                
;  84 | // Next two lines for debug only to halt the processor here            
;  85 | // Remove after inserting ISR Code                                     
;  86 | asm("          ESTOP0");                                               
;----------------------------------------------------------------------

;***************************************************************
;* FNAME: _ILLEGAL_ISR                  FR SIZE:   0           *
;*                                                             *
;* FUNCTION ENVIRONMENT                                        *
;*                                                             *
;* FUNCTION PROPERTIES                                         *
;*                            0 Parameter,  0 Auto,  0 SOE     *
;***************************************************************

_ILLEGAL_ISR:
	.dwcfi	cfa_offset, -2
	.dwcfi	save_reg_to_mem, 26, 0
        ASP       ; [CPU_] 
        CLRC      PAGE0,OVM             ; [CPU_] 
        CLRC      AMODE                 ; [CPU_] 
          ESTOP0
$C$L49:    
	.dwpsn	file "../DSP281x_common/source/DSP281x_DefaultIsr.c",line 87,column 3,is_stmt,isa 0
;----------------------------------------------------------------------
;  87 | for(;;);                                                               
;----------------------------------------------------------------------
        B         $C$L49,UNC            ; [CPU_] |87| 
        ; branch occurs ; [] |87| 
	.dwattr $C$DW$49, DW_AT_TI_end_file("../DSP281x_common/source/DSP281x_DefaultIsr.c")
	.dwattr $C$DW$49, DW_AT_TI_end_line(0x59)
	.dwattr $C$DW$49, DW_AT_TI_end_column(0x01)
	.dwendentry
	.dwendtag $C$DW$49

	.sect	".text:retain"
	.retain
	.retainrefs
	.global	_EMUINT_ISR

$C$DW$50	.dwtag  DW_TAG_subprogram
	.dwattr $C$DW$50, DW_AT_name("EMUINT_ISR")
	.dwattr $C$DW$50, DW_AT_low_pc(_EMUINT_ISR)
	.dwattr $C$DW$50, DW_AT_high_pc(0x00)
	.dwattr $C$DW$50, DW_AT_TI_symbol_name("_EMUINT_ISR")
	.dwattr $C$DW$50, DW_AT_external
	.dwattr $C$DW$50, DW_AT_TI_begin_file("../DSP281x_common/source/DSP281x_DefaultIsr.c")
	.dwattr $C$DW$50, DW_AT_TI_begin_line(0x3c)
	.dwattr $C$DW$50, DW_AT_TI_begin_column(0x10)
	.dwattr $C$DW$50, DW_AT_TI_interrupt
	.dwattr $C$DW$50, DW_AT_TI_max_frame_size(-2)
	.dwpsn	file "../DSP281x_common/source/DSP281x_DefaultIsr.c",line 61,column 1,is_stmt,address _EMUINT_ISR,isa 0

	.dwfde $C$DW$CIE, _EMUINT_ISR
;----------------------------------------------------------------------
;  60 | interrupt void EMUINT_ISR(void)    // Emulation interrupt              
;  62 | // Insert ISR Code here                                                
;  64 | // Next two lines for debug only to halt the processor here            
;  65 | // Remove after inserting ISR Code                                     
;  66 |  asm ("      ESTOP0");                                                 
;----------------------------------------------------------------------

;***************************************************************
;* FNAME: _EMUINT_ISR                   FR SIZE:   0           *
;*                                                             *
;* FUNCTION ENVIRONMENT                                        *
;*                                                             *
;* FUNCTION PROPERTIES                                         *
;*                            0 Parameter,  0 Auto,  0 SOE     *
;***************************************************************

_EMUINT_ISR:
	.dwcfi	cfa_offset, -2
	.dwcfi	save_reg_to_mem, 26, 0
        ASP       ; [CPU_] 
        CLRC      PAGE0,OVM             ; [CPU_] 
        CLRC      AMODE                 ; [CPU_] 
      ESTOP0
$C$L50:    
	.dwpsn	file "../DSP281x_common/source/DSP281x_DefaultIsr.c",line 67,column 4,is_stmt,isa 0
;----------------------------------------------------------------------
;  67 | for(;;);                                                               
;----------------------------------------------------------------------
        B         $C$L50,UNC            ; [CPU_] |67| 
        ; branch occurs ; [] |67| 
	.dwattr $C$DW$50, DW_AT_TI_end_file("../DSP281x_common/source/DSP281x_DefaultIsr.c")
	.dwattr $C$DW$50, DW_AT_TI_end_line(0x44)
	.dwattr $C$DW$50, DW_AT_TI_end_column(0x01)
	.dwendentry
	.dwendtag $C$DW$50

	.sect	".text:retain"
	.retain
	.retainrefs
	.global	_EMPTY_ISR

$C$DW$51	.dwtag  DW_TAG_subprogram
	.dwattr $C$DW$51, DW_AT_name("EMPTY_ISR")
	.dwattr $C$DW$51, DW_AT_low_pc(_EMPTY_ISR)
	.dwattr $C$DW$51, DW_AT_high_pc(0x00)
	.dwattr $C$DW$51, DW_AT_TI_symbol_name("_EMPTY_ISR")
	.dwattr $C$DW$51, DW_AT_external
	.dwattr $C$DW$51, DW_AT_TI_begin_file("../DSP281x_common/source/DSP281x_DefaultIsr.c")
	.dwattr $C$DW$51, DW_AT_TI_begin_line(0x3d3)
	.dwattr $C$DW$51, DW_AT_TI_begin_column(0x10)
	.dwattr $C$DW$51, DW_AT_TI_interrupt
	.dwattr $C$DW$51, DW_AT_TI_max_frame_size(-2)
	.dwpsn	file "../DSP281x_common/source/DSP281x_DefaultIsr.c",line 980,column 1,is_stmt,address _EMPTY_ISR,isa 0

	.dwfde $C$DW$CIE, _EMPTY_ISR
;----------------------------------------------------------------------
; 979 | interrupt void EMPTY_ISR(void)  // Empty ISR - only does a return.     
;----------------------------------------------------------------------

;***************************************************************
;* FNAME: _EMPTY_ISR                    FR SIZE:   0           *
;*                                                             *
;* FUNCTION ENVIRONMENT                                        *
;*                                                             *
;* FUNCTION PROPERTIES                                         *
;*                            0 Parameter,  0 Auto,  0 SOE     *
;***************************************************************

_EMPTY_ISR:
	.dwcfi	cfa_offset, -2
	.dwcfi	save_reg_to_mem, 26, 0
        ASP       ; [CPU_] 
        CLRC      PAGE0,OVM             ; [CPU_] 
        CLRC      AMODE                 ; [CPU_] 
        NASP      ; [CPU_] 
$C$DW$52	.dwtag  DW_TAG_TI_branch
	.dwattr $C$DW$52, DW_AT_low_pc(0x00)
	.dwattr $C$DW$52, DW_AT_TI_return

        IRET      ; [CPU_] 
        ; return occurs ; [] 
	.dwattr $C$DW$51, DW_AT_TI_end_file("../DSP281x_common/source/DSP281x_DefaultIsr.c")
	.dwattr $C$DW$51, DW_AT_TI_end_line(0x3d6)
	.dwattr $C$DW$51, DW_AT_TI_end_column(0x01)
	.dwendentry
	.dwendtag $C$DW$51

	.sect	".text:retain"
	.retain
	.retainrefs
	.global	_ECAN1INTA_ISR

$C$DW$53	.dwtag  DW_TAG_subprogram
	.dwattr $C$DW$53, DW_AT_name("ECAN1INTA_ISR")
	.dwattr $C$DW$53, DW_AT_low_pc(_ECAN1INTA_ISR)
	.dwattr $C$DW$53, DW_AT_high_pc(0x00)
	.dwattr $C$DW$53, DW_AT_TI_symbol_name("_ECAN1INTA_ISR")
	.dwattr $C$DW$53, DW_AT_external
	.dwattr $C$DW$53, DW_AT_TI_begin_file("../DSP281x_common/source/DSP281x_DefaultIsr.c")
	.dwattr $C$DW$53, DW_AT_TI_begin_line(0x399)
	.dwattr $C$DW$53, DW_AT_TI_begin_column(0x10)
	.dwattr $C$DW$53, DW_AT_TI_interrupt
	.dwattr $C$DW$53, DW_AT_TI_max_frame_size(-2)
	.dwpsn	file "../DSP281x_common/source/DSP281x_DefaultIsr.c",line 922,column 1,is_stmt,address _ECAN1INTA_ISR,isa 0

	.dwfde $C$DW$CIE, _ECAN1INTA_ISR
;----------------------------------------------------------------------
; 921 | interrupt void ECAN1INTA_ISR(void)  // eCAN-A                          
; 923 | // Insert ISR Code here                                                
; 925 | // To receive more interrupts from this PIE group, acknowledge this int
;     | errupt                                                                 
; 926 | // PieCtrlRegs.PIEACK.all = PIEACK_GROUP9;                             
; 928 | // Next two lines for debug only to halt the processor here            
; 929 | // Remove after inserting ISR Code                                     
; 930 |  asm ("      ESTOP0");                                                 
;----------------------------------------------------------------------

;***************************************************************
;* FNAME: _ECAN1INTA_ISR                FR SIZE:   0           *
;*                                                             *
;* FUNCTION ENVIRONMENT                                        *
;*                                                             *
;* FUNCTION PROPERTIES                                         *
;*                            0 Parameter,  0 Auto,  0 SOE     *
;***************************************************************

_ECAN1INTA_ISR:
	.dwcfi	cfa_offset, -2
	.dwcfi	save_reg_to_mem, 26, 0
        ASP       ; [CPU_] 
        CLRC      PAGE0,OVM             ; [CPU_] 
        CLRC      AMODE                 ; [CPU_] 
      ESTOP0
$C$L51:    
	.dwpsn	file "../DSP281x_common/source/DSP281x_DefaultIsr.c",line 931,column 4,is_stmt,isa 0
;----------------------------------------------------------------------
; 931 | for(;;);                                                               
;----------------------------------------------------------------------
        B         $C$L51,UNC            ; [CPU_] |931| 
        ; branch occurs ; [] |931| 
	.dwattr $C$DW$53, DW_AT_TI_end_file("../DSP281x_common/source/DSP281x_DefaultIsr.c")
	.dwattr $C$DW$53, DW_AT_TI_end_line(0x3a5)
	.dwattr $C$DW$53, DW_AT_TI_end_column(0x01)
	.dwendentry
	.dwendtag $C$DW$53

	.sect	".text:retain"
	.retain
	.retainrefs
	.global	_ECAN0INTA_ISR

$C$DW$54	.dwtag  DW_TAG_subprogram
	.dwattr $C$DW$54, DW_AT_name("ECAN0INTA_ISR")
	.dwattr $C$DW$54, DW_AT_low_pc(_ECAN0INTA_ISR)
	.dwattr $C$DW$54, DW_AT_high_pc(0x00)
	.dwattr $C$DW$54, DW_AT_TI_symbol_name("_ECAN0INTA_ISR")
	.dwattr $C$DW$54, DW_AT_external
	.dwattr $C$DW$54, DW_AT_TI_begin_file("../DSP281x_common/source/DSP281x_DefaultIsr.c")
	.dwattr $C$DW$54, DW_AT_TI_begin_line(0x38a)
	.dwattr $C$DW$54, DW_AT_TI_begin_column(0x10)
	.dwattr $C$DW$54, DW_AT_TI_interrupt
	.dwattr $C$DW$54, DW_AT_TI_max_frame_size(-2)
	.dwpsn	file "../DSP281x_common/source/DSP281x_DefaultIsr.c",line 907,column 1,is_stmt,address _ECAN0INTA_ISR,isa 0

	.dwfde $C$DW$CIE, _ECAN0INTA_ISR
;----------------------------------------------------------------------
; 906 | interrupt void ECAN0INTA_ISR(void)  // eCAN-A                          
; 908 | // Insert ISR Code here                                                
; 910 | // To receive more interrupts from this PIE group, acknowledge this int
;     | errupt                                                                 
; 911 | // PieCtrlRegs.PIEACK.all = PIEACK_GROUP9;                             
; 913 | // Next two lines for debug only to halt the processor here            
; 914 | // Remove after inserting ISR Code                                     
; 915 |  asm ("      ESTOP0");                                                 
;----------------------------------------------------------------------

;***************************************************************
;* FNAME: _ECAN0INTA_ISR                FR SIZE:   0           *
;*                                                             *
;* FUNCTION ENVIRONMENT                                        *
;*                                                             *
;* FUNCTION PROPERTIES                                         *
;*                            0 Parameter,  0 Auto,  0 SOE     *
;***************************************************************

_ECAN0INTA_ISR:
	.dwcfi	cfa_offset, -2
	.dwcfi	save_reg_to_mem, 26, 0
        ASP       ; [CPU_] 
        CLRC      PAGE0,OVM             ; [CPU_] 
        CLRC      AMODE                 ; [CPU_] 
      ESTOP0
$C$L52:    
	.dwpsn	file "../DSP281x_common/source/DSP281x_DefaultIsr.c",line 916,column 4,is_stmt,isa 0
;----------------------------------------------------------------------
; 916 | for(;;);                                                               
;----------------------------------------------------------------------
        B         $C$L52,UNC            ; [CPU_] |916| 
        ; branch occurs ; [] |916| 
	.dwattr $C$DW$54, DW_AT_TI_end_file("../DSP281x_common/source/DSP281x_DefaultIsr.c")
	.dwattr $C$DW$54, DW_AT_TI_end_line(0x396)
	.dwattr $C$DW$54, DW_AT_TI_end_column(0x01)
	.dwendentry
	.dwendtag $C$DW$54

	.sect	".text:retain"
	.retain
	.retainrefs
	.global	_DATALOG_ISR

$C$DW$55	.dwtag  DW_TAG_subprogram
	.dwattr $C$DW$55, DW_AT_name("DATALOG_ISR")
	.dwattr $C$DW$55, DW_AT_low_pc(_DATALOG_ISR)
	.dwattr $C$DW$55, DW_AT_high_pc(0x00)
	.dwattr $C$DW$55, DW_AT_TI_symbol_name("_DATALOG_ISR")
	.dwattr $C$DW$55, DW_AT_external
	.dwattr $C$DW$55, DW_AT_TI_begin_file("../DSP281x_common/source/DSP281x_DefaultIsr.c")
	.dwattr $C$DW$55, DW_AT_TI_begin_line(0x28)
	.dwattr $C$DW$55, DW_AT_TI_begin_column(0x10)
	.dwattr $C$DW$55, DW_AT_TI_interrupt
	.dwattr $C$DW$55, DW_AT_TI_max_frame_size(-2)
	.dwpsn	file "../DSP281x_common/source/DSP281x_DefaultIsr.c",line 41,column 1,is_stmt,address _DATALOG_ISR,isa 0

	.dwfde $C$DW$CIE, _DATALOG_ISR
;----------------------------------------------------------------------
;  40 | interrupt void DATALOG_ISR(void)   // Datalogging interrupt            
;  42 | // Insert ISR Code here                                                
;  44 | // Next two lines for debug only to halt the processor here            
;  45 | // Remove after inserting ISR Code                                     
;  46 |  asm ("      ESTOP0");                                                 
;----------------------------------------------------------------------

;***************************************************************
;* FNAME: _DATALOG_ISR                  FR SIZE:   0           *
;*                                                             *
;* FUNCTION ENVIRONMENT                                        *
;*                                                             *
;* FUNCTION PROPERTIES                                         *
;*                            0 Parameter,  0 Auto,  0 SOE     *
;***************************************************************

_DATALOG_ISR:
	.dwcfi	cfa_offset, -2
	.dwcfi	save_reg_to_mem, 26, 0
        ASP       ; [CPU_] 
        CLRC      PAGE0,OVM             ; [CPU_] 
        CLRC      AMODE                 ; [CPU_] 
      ESTOP0
$C$L53:    
	.dwpsn	file "../DSP281x_common/source/DSP281x_DefaultIsr.c",line 47,column 4,is_stmt,isa 0
;----------------------------------------------------------------------
;  47 | for(;;);                                                               
;----------------------------------------------------------------------
        B         $C$L53,UNC            ; [CPU_] |47| 
        ; branch occurs ; [] |47| 
	.dwattr $C$DW$55, DW_AT_TI_end_file("../DSP281x_common/source/DSP281x_DefaultIsr.c")
	.dwattr $C$DW$55, DW_AT_TI_end_line(0x30)
	.dwattr $C$DW$55, DW_AT_TI_end_column(0x01)
	.dwendentry
	.dwendtag $C$DW$55

	.sect	".text:retain"
	.retain
	.retainrefs
	.global	_CMP6INT_ISR

$C$DW$56	.dwtag  DW_TAG_subprogram
	.dwattr $C$DW$56, DW_AT_name("CMP6INT_ISR")
	.dwattr $C$DW$56, DW_AT_low_pc(_CMP6INT_ISR)
	.dwattr $C$DW$56, DW_AT_high_pc(0x00)
	.dwattr $C$DW$56, DW_AT_TI_symbol_name("_CMP6INT_ISR")
	.dwattr $C$DW$56, DW_AT_external
	.dwattr $C$DW$56, DW_AT_TI_begin_file("../DSP281x_common/source/DSP281x_DefaultIsr.c")
	.dwattr $C$DW$56, DW_AT_TI_begin_line(0x23a)
	.dwattr $C$DW$56, DW_AT_TI_begin_column(0x10)
	.dwattr $C$DW$56, DW_AT_TI_interrupt
	.dwattr $C$DW$56, DW_AT_TI_max_frame_size(-2)
	.dwpsn	file "../DSP281x_common/source/DSP281x_DefaultIsr.c",line 571,column 1,is_stmt,address _CMP6INT_ISR,isa 0

	.dwfde $C$DW$CIE, _CMP6INT_ISR
;----------------------------------------------------------------------
; 570 | interrupt void CMP6INT_ISR(void)    // EV-B                            
; 572 | // Insert ISR Code here                                                
; 574 | // To receive more interrupts from this PIE group, acknowledge this int
;     | errupt                                                                 
; 575 | // PieCtrlRegs.PIEACK.all = PIEACK_GROUP4;                             
; 577 | // Next two lines for debug only to halt the processor here            
; 578 | // Remove after inserting ISR Code                                     
; 579 |  asm ("      ESTOP0");                                                 
;----------------------------------------------------------------------

;***************************************************************
;* FNAME: _CMP6INT_ISR                  FR SIZE:   0           *
;*                                                             *
;* FUNCTION ENVIRONMENT                                        *
;*                                                             *
;* FUNCTION PROPERTIES                                         *
;*                            0 Parameter,  0 Auto,  0 SOE     *
;***************************************************************

_CMP6INT_ISR:
	.dwcfi	cfa_offset, -2
	.dwcfi	save_reg_to_mem, 26, 0
        ASP       ; [CPU_] 
        CLRC      PAGE0,OVM             ; [CPU_] 
        CLRC      AMODE                 ; [CPU_] 
      ESTOP0
$C$L54:    
	.dwpsn	file "../DSP281x_common/source/DSP281x_DefaultIsr.c",line 580,column 4,is_stmt,isa 0
;----------------------------------------------------------------------
; 580 | for(;;);                                                               
;----------------------------------------------------------------------
        B         $C$L54,UNC            ; [CPU_] |580| 
        ; branch occurs ; [] |580| 
	.dwattr $C$DW$56, DW_AT_TI_end_file("../DSP281x_common/source/DSP281x_DefaultIsr.c")
	.dwattr $C$DW$56, DW_AT_TI_end_line(0x245)
	.dwattr $C$DW$56, DW_AT_TI_end_column(0x01)
	.dwendentry
	.dwendtag $C$DW$56

	.sect	".text:retain"
	.retain
	.retainrefs
	.global	_CMP5INT_ISR

$C$DW$57	.dwtag  DW_TAG_subprogram
	.dwattr $C$DW$57, DW_AT_name("CMP5INT_ISR")
	.dwattr $C$DW$57, DW_AT_low_pc(_CMP5INT_ISR)
	.dwattr $C$DW$57, DW_AT_high_pc(0x00)
	.dwattr $C$DW$57, DW_AT_TI_symbol_name("_CMP5INT_ISR")
	.dwattr $C$DW$57, DW_AT_external
	.dwattr $C$DW$57, DW_AT_TI_begin_file("../DSP281x_common/source/DSP281x_DefaultIsr.c")
	.dwattr $C$DW$57, DW_AT_TI_begin_line(0x22c)
	.dwattr $C$DW$57, DW_AT_TI_begin_column(0x10)
	.dwattr $C$DW$57, DW_AT_TI_interrupt
	.dwattr $C$DW$57, DW_AT_TI_max_frame_size(-2)
	.dwpsn	file "../DSP281x_common/source/DSP281x_DefaultIsr.c",line 557,column 1,is_stmt,address _CMP5INT_ISR,isa 0

	.dwfde $C$DW$CIE, _CMP5INT_ISR
;----------------------------------------------------------------------
; 556 | interrupt void CMP5INT_ISR(void)    // EV-B                            
; 558 | // Insert ISR Code here                                                
; 560 | // To receive more interrupts from this PIE group, acknowledge this int
;     | errupt                                                                 
; 561 | // PieCtrlRegs.PIEACK.all = PIEACK_GROUP4;                             
; 563 | // Next two lines for debug only to halt the processor here            
; 564 | // Remove after inserting ISR Code                                     
; 565 |  asm ("      ESTOP0");                                                 
;----------------------------------------------------------------------

;***************************************************************
;* FNAME: _CMP5INT_ISR                  FR SIZE:   0           *
;*                                                             *
;* FUNCTION ENVIRONMENT                                        *
;*                                                             *
;* FUNCTION PROPERTIES                                         *
;*                            0 Parameter,  0 Auto,  0 SOE     *
;***************************************************************

_CMP5INT_ISR:
	.dwcfi	cfa_offset, -2
	.dwcfi	save_reg_to_mem, 26, 0
        ASP       ; [CPU_] 
        CLRC      PAGE0,OVM             ; [CPU_] 
        CLRC      AMODE                 ; [CPU_] 
      ESTOP0
$C$L55:    
	.dwpsn	file "../DSP281x_common/source/DSP281x_DefaultIsr.c",line 566,column 4,is_stmt,isa 0
;----------------------------------------------------------------------
; 566 | for(;;);                                                               
;----------------------------------------------------------------------
        B         $C$L55,UNC            ; [CPU_] |566| 
        ; branch occurs ; [] |566| 
	.dwattr $C$DW$57, DW_AT_TI_end_file("../DSP281x_common/source/DSP281x_DefaultIsr.c")
	.dwattr $C$DW$57, DW_AT_TI_end_line(0x237)
	.dwattr $C$DW$57, DW_AT_TI_end_column(0x01)
	.dwendentry
	.dwendtag $C$DW$57

	.sect	".text:retain"
	.retain
	.retainrefs
	.global	_CMP4INT_ISR

$C$DW$58	.dwtag  DW_TAG_subprogram
	.dwattr $C$DW$58, DW_AT_name("CMP4INT_ISR")
	.dwattr $C$DW$58, DW_AT_low_pc(_CMP4INT_ISR)
	.dwattr $C$DW$58, DW_AT_high_pc(0x00)
	.dwattr $C$DW$58, DW_AT_TI_symbol_name("_CMP4INT_ISR")
	.dwattr $C$DW$58, DW_AT_external
	.dwattr $C$DW$58, DW_AT_TI_begin_file("../DSP281x_common/source/DSP281x_DefaultIsr.c")
	.dwattr $C$DW$58, DW_AT_TI_begin_line(0x21e)
	.dwattr $C$DW$58, DW_AT_TI_begin_column(0x10)
	.dwattr $C$DW$58, DW_AT_TI_interrupt
	.dwattr $C$DW$58, DW_AT_TI_max_frame_size(-2)
	.dwpsn	file "../DSP281x_common/source/DSP281x_DefaultIsr.c",line 543,column 1,is_stmt,address _CMP4INT_ISR,isa 0

	.dwfde $C$DW$CIE, _CMP4INT_ISR
;----------------------------------------------------------------------
; 542 | interrupt void CMP4INT_ISR(void)    // EV-B                            
; 544 | // Insert ISR Code here                                                
; 546 | // To receive more interrupts from this PIE group, acknowledge this int
;     | errupt                                                                 
; 547 | // PieCtrlRegs.PIEACK.all = PIEACK_GROUP4;                             
; 549 | // Next two lines for debug only to halt the processor here            
; 550 | // Remove after inserting ISR Code                                     
; 551 |  asm ("      ESTOP0");                                                 
;----------------------------------------------------------------------

;***************************************************************
;* FNAME: _CMP4INT_ISR                  FR SIZE:   0           *
;*                                                             *
;* FUNCTION ENVIRONMENT                                        *
;*                                                             *
;* FUNCTION PROPERTIES                                         *
;*                            0 Parameter,  0 Auto,  0 SOE     *
;***************************************************************

_CMP4INT_ISR:
	.dwcfi	cfa_offset, -2
	.dwcfi	save_reg_to_mem, 26, 0
        ASP       ; [CPU_] 
        CLRC      PAGE0,OVM             ; [CPU_] 
        CLRC      AMODE                 ; [CPU_] 
      ESTOP0
$C$L56:    
	.dwpsn	file "../DSP281x_common/source/DSP281x_DefaultIsr.c",line 552,column 4,is_stmt,isa 0
;----------------------------------------------------------------------
; 552 | for(;;);                                                               
;----------------------------------------------------------------------
        B         $C$L56,UNC            ; [CPU_] |552| 
        ; branch occurs ; [] |552| 
	.dwattr $C$DW$58, DW_AT_TI_end_file("../DSP281x_common/source/DSP281x_DefaultIsr.c")
	.dwattr $C$DW$58, DW_AT_TI_end_line(0x229)
	.dwattr $C$DW$58, DW_AT_TI_end_column(0x01)
	.dwendentry
	.dwendtag $C$DW$58

	.sect	".text:retain"
	.retain
	.retainrefs
	.global	_CMP3INT_ISR

$C$DW$59	.dwtag  DW_TAG_subprogram
	.dwattr $C$DW$59, DW_AT_name("CMP3INT_ISR")
	.dwattr $C$DW$59, DW_AT_low_pc(_CMP3INT_ISR)
	.dwattr $C$DW$59, DW_AT_high_pc(0x00)
	.dwattr $C$DW$59, DW_AT_TI_symbol_name("_CMP3INT_ISR")
	.dwattr $C$DW$59, DW_AT_external
	.dwattr $C$DW$59, DW_AT_TI_begin_file("../DSP281x_common/source/DSP281x_DefaultIsr.c")
	.dwattr $C$DW$59, DW_AT_TI_begin_line(0x165)
	.dwattr $C$DW$59, DW_AT_TI_begin_column(0x10)
	.dwattr $C$DW$59, DW_AT_TI_interrupt
	.dwattr $C$DW$59, DW_AT_TI_max_frame_size(-2)
	.dwpsn	file "../DSP281x_common/source/DSP281x_DefaultIsr.c",line 358,column 1,is_stmt,address _CMP3INT_ISR,isa 0

	.dwfde $C$DW$CIE, _CMP3INT_ISR
;----------------------------------------------------------------------
; 357 | interrupt void CMP3INT_ISR(void)    // EV-A                            
; 359 | // Insert ISR Code here                                                
; 361 | // To receive more interrupts from this PIE group, acknowledge this int
;     | errupt                                                                 
; 362 | // PieCtrlRegs.PIEACK.all = PIEACK_GROUP2;                             
; 364 | // Next two lines for debug only to halt the processor here            
; 365 | // Remove after inserting ISR Code                                     
; 366 |  asm ("      ESTOP0");                                                 
;----------------------------------------------------------------------

;***************************************************************
;* FNAME: _CMP3INT_ISR                  FR SIZE:   0           *
;*                                                             *
;* FUNCTION ENVIRONMENT                                        *
;*                                                             *
;* FUNCTION PROPERTIES                                         *
;*                            0 Parameter,  0 Auto,  0 SOE     *
;***************************************************************

_CMP3INT_ISR:
	.dwcfi	cfa_offset, -2
	.dwcfi	save_reg_to_mem, 26, 0
        ASP       ; [CPU_] 
        CLRC      PAGE0,OVM             ; [CPU_] 
        CLRC      AMODE                 ; [CPU_] 
      ESTOP0
$C$L57:    
	.dwpsn	file "../DSP281x_common/source/DSP281x_DefaultIsr.c",line 367,column 4,is_stmt,isa 0
;----------------------------------------------------------------------
; 367 | for(;;);                                                               
;----------------------------------------------------------------------
        B         $C$L57,UNC            ; [CPU_] |367| 
        ; branch occurs ; [] |367| 
	.dwattr $C$DW$59, DW_AT_TI_end_file("../DSP281x_common/source/DSP281x_DefaultIsr.c")
	.dwattr $C$DW$59, DW_AT_TI_end_line(0x170)
	.dwattr $C$DW$59, DW_AT_TI_end_column(0x01)
	.dwendentry
	.dwendtag $C$DW$59

	.sect	".text:retain"
	.retain
	.retainrefs
	.global	_CMP2INT_ISR

$C$DW$60	.dwtag  DW_TAG_subprogram
	.dwattr $C$DW$60, DW_AT_name("CMP2INT_ISR")
	.dwattr $C$DW$60, DW_AT_low_pc(_CMP2INT_ISR)
	.dwattr $C$DW$60, DW_AT_high_pc(0x00)
	.dwattr $C$DW$60, DW_AT_TI_symbol_name("_CMP2INT_ISR")
	.dwattr $C$DW$60, DW_AT_external
	.dwattr $C$DW$60, DW_AT_TI_begin_file("../DSP281x_common/source/DSP281x_DefaultIsr.c")
	.dwattr $C$DW$60, DW_AT_TI_begin_line(0x157)
	.dwattr $C$DW$60, DW_AT_TI_begin_column(0x10)
	.dwattr $C$DW$60, DW_AT_TI_interrupt
	.dwattr $C$DW$60, DW_AT_TI_max_frame_size(-2)
	.dwpsn	file "../DSP281x_common/source/DSP281x_DefaultIsr.c",line 344,column 1,is_stmt,address _CMP2INT_ISR,isa 0

	.dwfde $C$DW$CIE, _CMP2INT_ISR
;----------------------------------------------------------------------
; 343 | interrupt void CMP2INT_ISR(void)    // EV-A                            
; 345 | // Insert ISR Code here                                                
; 347 | // To receive more interrupts from this PIE group, acknowledge this int
;     | errupt                                                                 
; 348 | // PieCtrlRegs.PIEACK.all = PIEACK_GROUP2;                             
; 350 | // Next two lines for debug only to halt the processor here            
; 351 | // Remove after inserting ISR Code                                     
; 352 |  asm ("      ESTOP0");                                                 
;----------------------------------------------------------------------

;***************************************************************
;* FNAME: _CMP2INT_ISR                  FR SIZE:   0           *
;*                                                             *
;* FUNCTION ENVIRONMENT                                        *
;*                                                             *
;* FUNCTION PROPERTIES                                         *
;*                            0 Parameter,  0 Auto,  0 SOE     *
;***************************************************************

_CMP2INT_ISR:
	.dwcfi	cfa_offset, -2
	.dwcfi	save_reg_to_mem, 26, 0
        ASP       ; [CPU_] 
        CLRC      PAGE0,OVM             ; [CPU_] 
        CLRC      AMODE                 ; [CPU_] 
      ESTOP0
$C$L58:    
	.dwpsn	file "../DSP281x_common/source/DSP281x_DefaultIsr.c",line 353,column 4,is_stmt,isa 0
;----------------------------------------------------------------------
; 353 | for(;;);                                                               
;----------------------------------------------------------------------
        B         $C$L58,UNC            ; [CPU_] |353| 
        ; branch occurs ; [] |353| 
	.dwattr $C$DW$60, DW_AT_TI_end_file("../DSP281x_common/source/DSP281x_DefaultIsr.c")
	.dwattr $C$DW$60, DW_AT_TI_end_line(0x162)
	.dwattr $C$DW$60, DW_AT_TI_end_column(0x01)
	.dwendentry
	.dwendtag $C$DW$60

	.sect	".text:retain"
	.retain
	.retainrefs
	.global	_CMP1INT_ISR

$C$DW$61	.dwtag  DW_TAG_subprogram
	.dwattr $C$DW$61, DW_AT_name("CMP1INT_ISR")
	.dwattr $C$DW$61, DW_AT_low_pc(_CMP1INT_ISR)
	.dwattr $C$DW$61, DW_AT_high_pc(0x00)
	.dwattr $C$DW$61, DW_AT_TI_symbol_name("_CMP1INT_ISR")
	.dwattr $C$DW$61, DW_AT_external
	.dwattr $C$DW$61, DW_AT_TI_begin_file("../DSP281x_common/source/DSP281x_DefaultIsr.c")
	.dwattr $C$DW$61, DW_AT_TI_begin_line(0x149)
	.dwattr $C$DW$61, DW_AT_TI_begin_column(0x10)
	.dwattr $C$DW$61, DW_AT_TI_interrupt
	.dwattr $C$DW$61, DW_AT_TI_max_frame_size(-2)
	.dwpsn	file "../DSP281x_common/source/DSP281x_DefaultIsr.c",line 330,column 1,is_stmt,address _CMP1INT_ISR,isa 0

	.dwfde $C$DW$CIE, _CMP1INT_ISR
;----------------------------------------------------------------------
; 329 | interrupt void CMP1INT_ISR(void)    // EV-A                            
; 331 | // Insert ISR Code here                                                
; 333 | // To receive more interrupts from this PIE group, acknowledge this int
;     | errupt                                                                 
; 334 | // PieCtrlRegs.PIEACK.all = PIEACK_GROUP2;                             
; 336 | // Next two lines for debug only to halt the processor here            
; 337 | // Remove after inserting ISR Code                                     
; 338 |  asm ("      ESTOP0");                                                 
;----------------------------------------------------------------------

;***************************************************************
;* FNAME: _CMP1INT_ISR                  FR SIZE:   0           *
;*                                                             *
;* FUNCTION ENVIRONMENT                                        *
;*                                                             *
;* FUNCTION PROPERTIES                                         *
;*                            0 Parameter,  0 Auto,  0 SOE     *
;***************************************************************

_CMP1INT_ISR:
	.dwcfi	cfa_offset, -2
	.dwcfi	save_reg_to_mem, 26, 0
        ASP       ; [CPU_] 
        CLRC      PAGE0,OVM             ; [CPU_] 
        CLRC      AMODE                 ; [CPU_] 
      ESTOP0
$C$L59:    
	.dwpsn	file "../DSP281x_common/source/DSP281x_DefaultIsr.c",line 339,column 4,is_stmt,isa 0
;----------------------------------------------------------------------
; 339 | for(;;);                                                               
;----------------------------------------------------------------------
        B         $C$L59,UNC            ; [CPU_] |339| 
        ; branch occurs ; [] |339| 
	.dwattr $C$DW$61, DW_AT_TI_end_file("../DSP281x_common/source/DSP281x_DefaultIsr.c")
	.dwattr $C$DW$61, DW_AT_TI_end_line(0x154)
	.dwattr $C$DW$61, DW_AT_TI_end_column(0x01)
	.dwendentry
	.dwendtag $C$DW$61

	.sect	".text:retain"
	.retain
	.retainrefs
	.global	_CAPINT6_ISR

$C$DW$62	.dwtag  DW_TAG_subprogram
	.dwattr $C$DW$62, DW_AT_name("CAPINT6_ISR")
	.dwattr $C$DW$62, DW_AT_low_pc(_CAPINT6_ISR)
	.dwattr $C$DW$62, DW_AT_high_pc(0x00)
	.dwattr $C$DW$62, DW_AT_TI_symbol_name("_CAPINT6_ISR")
	.dwattr $C$DW$62, DW_AT_external
	.dwattr $C$DW$62, DW_AT_TI_begin_file("../DSP281x_common/source/DSP281x_DefaultIsr.c")
	.dwattr $C$DW$62, DW_AT_TI_begin_line(0x2da)
	.dwattr $C$DW$62, DW_AT_TI_begin_column(0x10)
	.dwattr $C$DW$62, DW_AT_TI_interrupt
	.dwattr $C$DW$62, DW_AT_TI_max_frame_size(-2)
	.dwpsn	file "../DSP281x_common/source/DSP281x_DefaultIsr.c",line 731,column 1,is_stmt,address _CAPINT6_ISR,isa 0

	.dwfde $C$DW$CIE, _CAPINT6_ISR
;----------------------------------------------------------------------
; 730 | interrupt void CAPINT6_ISR(void)   // EV-B                             
; 732 | // Insert ISR Code here                                                
; 734 | // To receive more interrupts from this PIE group, acknowledge this int
;     | errupt                                                                 
; 735 | // PieCtrlRegs.PIEACK.all = PIEACK_GROUP5;                             
; 737 | // Next two lines for debug only to halt the processor here            
; 738 | // Remove after inserting ISR Code                                     
; 739 |  asm ("      ESTOP0");                                                 
;----------------------------------------------------------------------

;***************************************************************
;* FNAME: _CAPINT6_ISR                  FR SIZE:   0           *
;*                                                             *
;* FUNCTION ENVIRONMENT                                        *
;*                                                             *
;* FUNCTION PROPERTIES                                         *
;*                            0 Parameter,  0 Auto,  0 SOE     *
;***************************************************************

_CAPINT6_ISR:
	.dwcfi	cfa_offset, -2
	.dwcfi	save_reg_to_mem, 26, 0
        ASP       ; [CPU_] 
        CLRC      PAGE0,OVM             ; [CPU_] 
        CLRC      AMODE                 ; [CPU_] 
      ESTOP0
$C$L60:    
	.dwpsn	file "../DSP281x_common/source/DSP281x_DefaultIsr.c",line 740,column 4,is_stmt,isa 0
;----------------------------------------------------------------------
; 740 | for(;;);                                                               
;----------------------------------------------------------------------
        B         $C$L60,UNC            ; [CPU_] |740| 
        ; branch occurs ; [] |740| 
	.dwattr $C$DW$62, DW_AT_TI_end_file("../DSP281x_common/source/DSP281x_DefaultIsr.c")
	.dwattr $C$DW$62, DW_AT_TI_end_line(0x2e5)
	.dwattr $C$DW$62, DW_AT_TI_end_column(0x01)
	.dwendentry
	.dwendtag $C$DW$62

	.sect	".text:retain"
	.retain
	.retainrefs
	.global	_CAPINT5_ISR

$C$DW$63	.dwtag  DW_TAG_subprogram
	.dwattr $C$DW$63, DW_AT_name("CAPINT5_ISR")
	.dwattr $C$DW$63, DW_AT_low_pc(_CAPINT5_ISR)
	.dwattr $C$DW$63, DW_AT_high_pc(0x00)
	.dwattr $C$DW$63, DW_AT_TI_symbol_name("_CAPINT5_ISR")
	.dwattr $C$DW$63, DW_AT_external
	.dwattr $C$DW$63, DW_AT_TI_begin_file("../DSP281x_common/source/DSP281x_DefaultIsr.c")
	.dwattr $C$DW$63, DW_AT_TI_begin_line(0x2cc)
	.dwattr $C$DW$63, DW_AT_TI_begin_column(0x10)
	.dwattr $C$DW$63, DW_AT_TI_interrupt
	.dwattr $C$DW$63, DW_AT_TI_max_frame_size(-2)
	.dwpsn	file "../DSP281x_common/source/DSP281x_DefaultIsr.c",line 717,column 1,is_stmt,address _CAPINT5_ISR,isa 0

	.dwfde $C$DW$CIE, _CAPINT5_ISR
;----------------------------------------------------------------------
; 716 | interrupt void CAPINT5_ISR(void)   // EV-B                             
; 718 | // Insert ISR Code here                                                
; 720 | // To receive more interrupts from this PIE group, acknowledge this int
;     | errupt                                                                 
; 721 | // PieCtrlRegs.PIEACK.all = PIEACK_GROUP5;                             
; 723 | // Next two lines for debug only to halt the processor here            
; 724 | // Remove after inserting ISR Code                                     
; 725 |  asm ("      ESTOP0");                                                 
;----------------------------------------------------------------------

;***************************************************************
;* FNAME: _CAPINT5_ISR                  FR SIZE:   0           *
;*                                                             *
;* FUNCTION ENVIRONMENT                                        *
;*                                                             *
;* FUNCTION PROPERTIES                                         *
;*                            0 Parameter,  0 Auto,  0 SOE     *
;***************************************************************

_CAPINT5_ISR:
	.dwcfi	cfa_offset, -2
	.dwcfi	save_reg_to_mem, 26, 0
        ASP       ; [CPU_] 
        CLRC      PAGE0,OVM             ; [CPU_] 
        CLRC      AMODE                 ; [CPU_] 
      ESTOP0
$C$L61:    
	.dwpsn	file "../DSP281x_common/source/DSP281x_DefaultIsr.c",line 726,column 4,is_stmt,isa 0
;----------------------------------------------------------------------
; 726 | for(;;);                                                               
;----------------------------------------------------------------------
        B         $C$L61,UNC            ; [CPU_] |726| 
        ; branch occurs ; [] |726| 
	.dwattr $C$DW$63, DW_AT_TI_end_file("../DSP281x_common/source/DSP281x_DefaultIsr.c")
	.dwattr $C$DW$63, DW_AT_TI_end_line(0x2d7)
	.dwattr $C$DW$63, DW_AT_TI_end_column(0x01)
	.dwendentry
	.dwendtag $C$DW$63

	.sect	".text:retain"
	.retain
	.retainrefs
	.global	_CAPINT4_ISR

$C$DW$64	.dwtag  DW_TAG_subprogram
	.dwattr $C$DW$64, DW_AT_name("CAPINT4_ISR")
	.dwattr $C$DW$64, DW_AT_low_pc(_CAPINT4_ISR)
	.dwattr $C$DW$64, DW_AT_high_pc(0x00)
	.dwattr $C$DW$64, DW_AT_TI_symbol_name("_CAPINT4_ISR")
	.dwattr $C$DW$64, DW_AT_external
	.dwattr $C$DW$64, DW_AT_TI_begin_file("../DSP281x_common/source/DSP281x_DefaultIsr.c")
	.dwattr $C$DW$64, DW_AT_TI_begin_line(0x2be)
	.dwattr $C$DW$64, DW_AT_TI_begin_column(0x10)
	.dwattr $C$DW$64, DW_AT_TI_interrupt
	.dwattr $C$DW$64, DW_AT_TI_max_frame_size(-2)
	.dwpsn	file "../DSP281x_common/source/DSP281x_DefaultIsr.c",line 703,column 1,is_stmt,address _CAPINT4_ISR,isa 0

	.dwfde $C$DW$CIE, _CAPINT4_ISR
;----------------------------------------------------------------------
; 702 | interrupt void CAPINT4_ISR(void)   // EV-B                             
; 704 | // Insert ISR Code here                                                
; 706 | // To receive more interrupts from this PIE group, acknowledge this int
;     | errupt                                                                 
; 707 | // PieCtrlRegs.PIEACK.all = PIEACK_GROUP5;                             
; 709 | // Next two lines for debug only to halt the processor here            
; 710 | // Remove after inserting ISR Code                                     
; 711 |  asm ("      ESTOP0");                                                 
;----------------------------------------------------------------------

;***************************************************************
;* FNAME: _CAPINT4_ISR                  FR SIZE:   0           *
;*                                                             *
;* FUNCTION ENVIRONMENT                                        *
;*                                                             *
;* FUNCTION PROPERTIES                                         *
;*                            0 Parameter,  0 Auto,  0 SOE     *
;***************************************************************

_CAPINT4_ISR:
	.dwcfi	cfa_offset, -2
	.dwcfi	save_reg_to_mem, 26, 0
        ASP       ; [CPU_] 
        CLRC      PAGE0,OVM             ; [CPU_] 
        CLRC      AMODE                 ; [CPU_] 
      ESTOP0
$C$L62:    
	.dwpsn	file "../DSP281x_common/source/DSP281x_DefaultIsr.c",line 712,column 4,is_stmt,isa 0
;----------------------------------------------------------------------
; 712 | for(;;);                                                               
;----------------------------------------------------------------------
        B         $C$L62,UNC            ; [CPU_] |712| 
        ; branch occurs ; [] |712| 
	.dwattr $C$DW$64, DW_AT_TI_end_file("../DSP281x_common/source/DSP281x_DefaultIsr.c")
	.dwattr $C$DW$64, DW_AT_TI_end_line(0x2c9)
	.dwattr $C$DW$64, DW_AT_TI_end_column(0x01)
	.dwendentry
	.dwendtag $C$DW$64

	.sect	".text:retain"
	.retain
	.retainrefs
	.global	_CAPINT3_ISR

$C$DW$65	.dwtag  DW_TAG_subprogram
	.dwattr $C$DW$65, DW_AT_name("CAPINT3_ISR")
	.dwattr $C$DW$65, DW_AT_low_pc(_CAPINT3_ISR)
	.dwattr $C$DW$65, DW_AT_high_pc(0x00)
	.dwattr $C$DW$65, DW_AT_TI_symbol_name("_CAPINT3_ISR")
	.dwattr $C$DW$65, DW_AT_external
	.dwattr $C$DW$65, DW_AT_TI_begin_file("../DSP281x_common/source/DSP281x_DefaultIsr.c")
	.dwattr $C$DW$65, DW_AT_TI_begin_line(0x209)
	.dwattr $C$DW$65, DW_AT_TI_begin_column(0x10)
	.dwattr $C$DW$65, DW_AT_TI_interrupt
	.dwattr $C$DW$65, DW_AT_TI_max_frame_size(-2)
	.dwpsn	file "../DSP281x_common/source/DSP281x_DefaultIsr.c",line 522,column 1,is_stmt,address _CAPINT3_ISR,isa 0

	.dwfde $C$DW$CIE, _CAPINT3_ISR
;----------------------------------------------------------------------
; 521 | interrupt void CAPINT3_ISR(void)    // EV-A                            
; 523 | // Insert ISR Code here                                                
; 525 | // To receive more interrupts from this PIE group, acknowledge this int
;     | errupt                                                                 
; 526 | // PieCtrlRegs.PIEACK.all = PIEACK_GROUP3;                             
; 528 | // Next two lines for debug only to halt the processor here            
; 529 | // Remove after inserting ISR Code                                     
; 530 |  asm ("      ESTOP0");                                                 
;----------------------------------------------------------------------

;***************************************************************
;* FNAME: _CAPINT3_ISR                  FR SIZE:   0           *
;*                                                             *
;* FUNCTION ENVIRONMENT                                        *
;*                                                             *
;* FUNCTION PROPERTIES                                         *
;*                            0 Parameter,  0 Auto,  0 SOE     *
;***************************************************************

_CAPINT3_ISR:
	.dwcfi	cfa_offset, -2
	.dwcfi	save_reg_to_mem, 26, 0
        ASP       ; [CPU_] 
        CLRC      PAGE0,OVM             ; [CPU_] 
        CLRC      AMODE                 ; [CPU_] 
      ESTOP0
$C$L63:    
	.dwpsn	file "../DSP281x_common/source/DSP281x_DefaultIsr.c",line 531,column 4,is_stmt,isa 0
;----------------------------------------------------------------------
; 531 | for(;;);                                                               
;----------------------------------------------------------------------
        B         $C$L63,UNC            ; [CPU_] |531| 
        ; branch occurs ; [] |531| 
	.dwattr $C$DW$65, DW_AT_TI_end_file("../DSP281x_common/source/DSP281x_DefaultIsr.c")
	.dwattr $C$DW$65, DW_AT_TI_end_line(0x214)
	.dwattr $C$DW$65, DW_AT_TI_end_column(0x01)
	.dwendentry
	.dwendtag $C$DW$65

	.sect	".text:retain"
	.retain
	.retainrefs
	.global	_CAPINT2_ISR

$C$DW$66	.dwtag  DW_TAG_subprogram
	.dwattr $C$DW$66, DW_AT_name("CAPINT2_ISR")
	.dwattr $C$DW$66, DW_AT_low_pc(_CAPINT2_ISR)
	.dwattr $C$DW$66, DW_AT_high_pc(0x00)
	.dwattr $C$DW$66, DW_AT_TI_symbol_name("_CAPINT2_ISR")
	.dwattr $C$DW$66, DW_AT_external
	.dwattr $C$DW$66, DW_AT_TI_begin_file("../DSP281x_common/source/DSP281x_DefaultIsr.c")
	.dwattr $C$DW$66, DW_AT_TI_begin_line(0x1fb)
	.dwattr $C$DW$66, DW_AT_TI_begin_column(0x10)
	.dwattr $C$DW$66, DW_AT_TI_interrupt
	.dwattr $C$DW$66, DW_AT_TI_max_frame_size(-2)
	.dwpsn	file "../DSP281x_common/source/DSP281x_DefaultIsr.c",line 508,column 1,is_stmt,address _CAPINT2_ISR,isa 0

	.dwfde $C$DW$CIE, _CAPINT2_ISR
;----------------------------------------------------------------------
; 507 | interrupt void CAPINT2_ISR(void)    // EV-A                            
; 509 | // Insert ISR Code here                                                
; 511 | // To receive more interrupts from this PIE group, acknowledge this int
;     | errupt                                                                 
; 512 | // PieCtrlRegs.PIEACK.all = PIEACK_GROUP3;                             
; 514 | // Next two lines for debug only to halt the processor here            
; 515 | // Remove after inserting ISR Code                                     
; 516 |  asm ("      ESTOP0");                                                 
;----------------------------------------------------------------------

;***************************************************************
;* FNAME: _CAPINT2_ISR                  FR SIZE:   0           *
;*                                                             *
;* FUNCTION ENVIRONMENT                                        *
;*                                                             *
;* FUNCTION PROPERTIES                                         *
;*                            0 Parameter,  0 Auto,  0 SOE     *
;***************************************************************

_CAPINT2_ISR:
	.dwcfi	cfa_offset, -2
	.dwcfi	save_reg_to_mem, 26, 0
        ASP       ; [CPU_] 
        CLRC      PAGE0,OVM             ; [CPU_] 
        CLRC      AMODE                 ; [CPU_] 
      ESTOP0
$C$L64:    
	.dwpsn	file "../DSP281x_common/source/DSP281x_DefaultIsr.c",line 517,column 4,is_stmt,isa 0
;----------------------------------------------------------------------
; 517 | for(;;);                                                               
;----------------------------------------------------------------------
        B         $C$L64,UNC            ; [CPU_] |517| 
        ; branch occurs ; [] |517| 
	.dwattr $C$DW$66, DW_AT_TI_end_file("../DSP281x_common/source/DSP281x_DefaultIsr.c")
	.dwattr $C$DW$66, DW_AT_TI_end_line(0x206)
	.dwattr $C$DW$66, DW_AT_TI_end_column(0x01)
	.dwendentry
	.dwendtag $C$DW$66

	.sect	".text:retain"
	.retain
	.retainrefs
	.global	_CAPINT1_ISR

$C$DW$67	.dwtag  DW_TAG_subprogram
	.dwattr $C$DW$67, DW_AT_name("CAPINT1_ISR")
	.dwattr $C$DW$67, DW_AT_low_pc(_CAPINT1_ISR)
	.dwattr $C$DW$67, DW_AT_high_pc(0x00)
	.dwattr $C$DW$67, DW_AT_TI_symbol_name("_CAPINT1_ISR")
	.dwattr $C$DW$67, DW_AT_external
	.dwattr $C$DW$67, DW_AT_TI_begin_file("../DSP281x_common/source/DSP281x_DefaultIsr.c")
	.dwattr $C$DW$67, DW_AT_TI_begin_line(0x1ed)
	.dwattr $C$DW$67, DW_AT_TI_begin_column(0x10)
	.dwattr $C$DW$67, DW_AT_TI_interrupt
	.dwattr $C$DW$67, DW_AT_TI_max_frame_size(-2)
	.dwpsn	file "../DSP281x_common/source/DSP281x_DefaultIsr.c",line 494,column 1,is_stmt,address _CAPINT1_ISR,isa 0

	.dwfde $C$DW$CIE, _CAPINT1_ISR
;----------------------------------------------------------------------
; 493 | interrupt void CAPINT1_ISR(void)    // EV-A                            
; 495 | // Insert ISR Code here                                                
; 497 | // To receive more interrupts from this PIE group, acknowledge this int
;     | errupt                                                                 
; 498 | // PieCtrlRegs.PIEACK.all = PIEACK_GROUP3;                             
; 500 | // Next two lines for debug only to halt the processor here            
; 501 | // Remove after inserting ISR Code                                     
; 502 |  asm ("      ESTOP0");                                                 
;----------------------------------------------------------------------

;***************************************************************
;* FNAME: _CAPINT1_ISR                  FR SIZE:   0           *
;*                                                             *
;* FUNCTION ENVIRONMENT                                        *
;*                                                             *
;* FUNCTION PROPERTIES                                         *
;*                            0 Parameter,  0 Auto,  0 SOE     *
;***************************************************************

_CAPINT1_ISR:
	.dwcfi	cfa_offset, -2
	.dwcfi	save_reg_to_mem, 26, 0
        ASP       ; [CPU_] 
        CLRC      PAGE0,OVM             ; [CPU_] 
        CLRC      AMODE                 ; [CPU_] 
      ESTOP0
$C$L65:    
	.dwpsn	file "../DSP281x_common/source/DSP281x_DefaultIsr.c",line 503,column 4,is_stmt,isa 0
;----------------------------------------------------------------------
; 503 | for(;;);                                                               
;----------------------------------------------------------------------
        B         $C$L65,UNC            ; [CPU_] |503| 
        ; branch occurs ; [] |503| 
	.dwattr $C$DW$67, DW_AT_TI_end_file("../DSP281x_common/source/DSP281x_DefaultIsr.c")
	.dwattr $C$DW$67, DW_AT_TI_end_line(0x1f8)
	.dwattr $C$DW$67, DW_AT_TI_end_column(0x01)
	.dwendentry
	.dwendtag $C$DW$67

	.sect	".text:retain"
	.retain
	.retainrefs
	.global	_ADCINT_ISR

$C$DW$68	.dwtag  DW_TAG_subprogram
	.dwattr $C$DW$68, DW_AT_name("ADCINT_ISR")
	.dwattr $C$DW$68, DW_AT_low_pc(_ADCINT_ISR)
	.dwattr $C$DW$68, DW_AT_high_pc(0x00)
	.dwattr $C$DW$68, DW_AT_TI_symbol_name("_ADCINT_ISR")
	.dwattr $C$DW$68, DW_AT_external
	.dwattr $C$DW$68, DW_AT_TI_begin_file("../DSP281x_common/source/DSP281x_DefaultIsr.c")
	.dwattr $C$DW$68, DW_AT_TI_begin_line(0x119)
	.dwattr $C$DW$68, DW_AT_TI_begin_column(0x11)
	.dwattr $C$DW$68, DW_AT_TI_interrupt
	.dwattr $C$DW$68, DW_AT_TI_max_frame_size(-2)
	.dwpsn	file "../DSP281x_common/source/DSP281x_DefaultIsr.c",line 282,column 1,is_stmt,address _ADCINT_ISR,isa 0

	.dwfde $C$DW$CIE, _ADCINT_ISR
;----------------------------------------------------------------------
; 281 | interrupt void  ADCINT_ISR(void)     // ADC                            
; 283 | // Insert ISR Code here                                                
; 285 | // To receive more interrupts from this PIE group, acknowledge this int
;     | errupt                                                                 
; 286 | // PieCtrlRegs.PIEACK.all = PIEACK_GROUP1;                             
; 288 | // Next two lines for debug only to halt the processor here            
; 289 | // Remove after inserting ISR Code                                     
; 290 |  asm ("      ESTOP0");                                                 
;----------------------------------------------------------------------

;***************************************************************
;* FNAME: _ADCINT_ISR                   FR SIZE:   0           *
;*                                                             *
;* FUNCTION ENVIRONMENT                                        *
;*                                                             *
;* FUNCTION PROPERTIES                                         *
;*                            0 Parameter,  0 Auto,  0 SOE     *
;***************************************************************

_ADCINT_ISR:
	.dwcfi	cfa_offset, -2
	.dwcfi	save_reg_to_mem, 26, 0
        ASP       ; [CPU_] 
        CLRC      PAGE0,OVM             ; [CPU_] 
        CLRC      AMODE                 ; [CPU_] 
      ESTOP0
$C$L66:    
	.dwpsn	file "../DSP281x_common/source/DSP281x_DefaultIsr.c",line 291,column 4,is_stmt,isa 0
;----------------------------------------------------------------------
; 291 | for(;;);                                                               
;----------------------------------------------------------------------
        B         $C$L66,UNC            ; [CPU_] |291| 
        ; branch occurs ; [] |291| 
	.dwattr $C$DW$68, DW_AT_TI_end_file("../DSP281x_common/source/DSP281x_DefaultIsr.c")
	.dwattr $C$DW$68, DW_AT_TI_end_line(0x124)
	.dwattr $C$DW$68, DW_AT_TI_end_column(0x01)
	.dwendentry
	.dwendtag $C$DW$68


;***************************************************************
;* TYPE INFORMATION                                            *
;***************************************************************
$C$DW$T$2	.dwtag  DW_TAG_unspecified_type
	.dwattr $C$DW$T$2, DW_AT_name("void")

$C$DW$T$4	.dwtag  DW_TAG_base_type
	.dwattr $C$DW$T$4, DW_AT_encoding(DW_ATE_boolean)
	.dwattr $C$DW$T$4, DW_AT_name("bool")
	.dwattr $C$DW$T$4, DW_AT_byte_size(0x01)

$C$DW$T$5	.dwtag  DW_TAG_base_type
	.dwattr $C$DW$T$5, DW_AT_encoding(DW_ATE_signed_char)
	.dwattr $C$DW$T$5, DW_AT_name("signed char")
	.dwattr $C$DW$T$5, DW_AT_byte_size(0x01)

$C$DW$T$6	.dwtag  DW_TAG_base_type
	.dwattr $C$DW$T$6, DW_AT_encoding(DW_ATE_unsigned_char)
	.dwattr $C$DW$T$6, DW_AT_name("unsigned char")
	.dwattr $C$DW$T$6, DW_AT_byte_size(0x01)

$C$DW$T$7	.dwtag  DW_TAG_base_type
	.dwattr $C$DW$T$7, DW_AT_encoding(DW_ATE_signed_char)
	.dwattr $C$DW$T$7, DW_AT_name("wchar_t")
	.dwattr $C$DW$T$7, DW_AT_byte_size(0x01)

$C$DW$T$8	.dwtag  DW_TAG_base_type
	.dwattr $C$DW$T$8, DW_AT_encoding(DW_ATE_signed)
	.dwattr $C$DW$T$8, DW_AT_name("short")
	.dwattr $C$DW$T$8, DW_AT_byte_size(0x01)

$C$DW$T$9	.dwtag  DW_TAG_base_type
	.dwattr $C$DW$T$9, DW_AT_encoding(DW_ATE_unsigned)
	.dwattr $C$DW$T$9, DW_AT_name("unsigned short")
	.dwattr $C$DW$T$9, DW_AT_byte_size(0x01)

$C$DW$T$10	.dwtag  DW_TAG_base_type
	.dwattr $C$DW$T$10, DW_AT_encoding(DW_ATE_signed)
	.dwattr $C$DW$T$10, DW_AT_name("int")
	.dwattr $C$DW$T$10, DW_AT_byte_size(0x01)

$C$DW$T$11	.dwtag  DW_TAG_base_type
	.dwattr $C$DW$T$11, DW_AT_encoding(DW_ATE_unsigned)
	.dwattr $C$DW$T$11, DW_AT_name("unsigned int")
	.dwattr $C$DW$T$11, DW_AT_byte_size(0x01)

$C$DW$T$12	.dwtag  DW_TAG_base_type
	.dwattr $C$DW$T$12, DW_AT_encoding(DW_ATE_signed)
	.dwattr $C$DW$T$12, DW_AT_name("long")
	.dwattr $C$DW$T$12, DW_AT_byte_size(0x02)

$C$DW$T$13	.dwtag  DW_TAG_base_type
	.dwattr $C$DW$T$13, DW_AT_encoding(DW_ATE_unsigned)
	.dwattr $C$DW$T$13, DW_AT_name("unsigned long")
	.dwattr $C$DW$T$13, DW_AT_byte_size(0x02)

$C$DW$T$14	.dwtag  DW_TAG_base_type
	.dwattr $C$DW$T$14, DW_AT_encoding(DW_ATE_signed)
	.dwattr $C$DW$T$14, DW_AT_name("long long")
	.dwattr $C$DW$T$14, DW_AT_byte_size(0x04)

$C$DW$T$15	.dwtag  DW_TAG_base_type
	.dwattr $C$DW$T$15, DW_AT_encoding(DW_ATE_unsigned)
	.dwattr $C$DW$T$15, DW_AT_name("unsigned long long")
	.dwattr $C$DW$T$15, DW_AT_byte_size(0x04)

$C$DW$T$16	.dwtag  DW_TAG_base_type
	.dwattr $C$DW$T$16, DW_AT_encoding(DW_ATE_float)
	.dwattr $C$DW$T$16, DW_AT_name("float")
	.dwattr $C$DW$T$16, DW_AT_byte_size(0x02)

$C$DW$T$17	.dwtag  DW_TAG_base_type
	.dwattr $C$DW$T$17, DW_AT_encoding(DW_ATE_float)
	.dwattr $C$DW$T$17, DW_AT_name("double")
	.dwattr $C$DW$T$17, DW_AT_byte_size(0x02)

$C$DW$T$18	.dwtag  DW_TAG_base_type
	.dwattr $C$DW$T$18, DW_AT_encoding(DW_ATE_float)
	.dwattr $C$DW$T$18, DW_AT_name("long double")
	.dwattr $C$DW$T$18, DW_AT_byte_size(0x04)

	.dwattr $C$DW$CU, DW_AT_language(DW_LANG_C)

;***************************************************************
;* DWARF CIE ENTRIES                                           *
;***************************************************************

$C$DW$CIE	.dwcie 26
	.dwcfi	cfa_register, 20
	.dwcfi	cfa_offset, 0
	.dwcfi	undefined, 0
	.dwcfi	undefined, 1
	.dwcfi	undefined, 2
	.dwcfi	undefined, 3
	.dwcfi	undefined, 20
	.dwcfi	undefined, 21
	.dwcfi	undefined, 22
	.dwcfi	undefined, 23
	.dwcfi	undefined, 24
	.dwcfi	undefined, 25
	.dwcfi	undefined, 26
	.dwcfi	same_value, 28
	.dwcfi	undefined, 29
	.dwcfi	undefined, 30
	.dwcfi	undefined, 31
	.dwcfi	undefined, 32
	.dwcfi	undefined, 33
	.dwcfi	undefined, 34
	.dwcfi	undefined, 35
	.dwcfi	undefined, 36
	.dwcfi	undefined, 37
	.dwcfi	undefined, 38
	.dwcfi	undefined, 75
	.dwcfi	undefined, 76
	.dwcfi	undefined, 77
	.dwcfi	undefined, 4
	.dwcfi	undefined, 5
	.dwcfi	same_value, 6
	.dwcfi	same_value, 7
	.dwcfi	same_value, 8
	.dwcfi	same_value, 9
	.dwcfi	same_value, 10
	.dwcfi	same_value, 11
	.dwcfi	undefined, 12
	.dwcfi	undefined, 13
	.dwcfi	undefined, 14
	.dwcfi	undefined, 15
	.dwcfi	undefined, 16
	.dwcfi	undefined, 17
	.dwcfi	undefined, 18
	.dwcfi	undefined, 19
	.dwendentry

;***************************************************************
;* DWARF REGISTER MAP                                          *
;***************************************************************

$C$DW$69	.dwtag  DW_TAG_TI_assign_register
	.dwattr $C$DW$69, DW_AT_name("AL")
	.dwattr $C$DW$69, DW_AT_location[DW_OP_reg0]

$C$DW$70	.dwtag  DW_TAG_TI_assign_register
	.dwattr $C$DW$70, DW_AT_name("AH")
	.dwattr $C$DW$70, DW_AT_location[DW_OP_reg1]

$C$DW$71	.dwtag  DW_TAG_TI_assign_register
	.dwattr $C$DW$71, DW_AT_name("PL")
	.dwattr $C$DW$71, DW_AT_location[DW_OP_reg2]

$C$DW$72	.dwtag  DW_TAG_TI_assign_register
	.dwattr $C$DW$72, DW_AT_name("PH")
	.dwattr $C$DW$72, DW_AT_location[DW_OP_reg3]

$C$DW$73	.dwtag  DW_TAG_TI_assign_register
	.dwattr $C$DW$73, DW_AT_name("SP")
	.dwattr $C$DW$73, DW_AT_location[DW_OP_reg20]

$C$DW$74	.dwtag  DW_TAG_TI_assign_register
	.dwattr $C$DW$74, DW_AT_name("XT")
	.dwattr $C$DW$74, DW_AT_location[DW_OP_reg21]

$C$DW$75	.dwtag  DW_TAG_TI_assign_register
	.dwattr $C$DW$75, DW_AT_name("T")
	.dwattr $C$DW$75, DW_AT_location[DW_OP_reg22]

$C$DW$76	.dwtag  DW_TAG_TI_assign_register
	.dwattr $C$DW$76, DW_AT_name("ST0")
	.dwattr $C$DW$76, DW_AT_location[DW_OP_reg23]

$C$DW$77	.dwtag  DW_TAG_TI_assign_register
	.dwattr $C$DW$77, DW_AT_name("ST1")
	.dwattr $C$DW$77, DW_AT_location[DW_OP_reg24]

$C$DW$78	.dwtag  DW_TAG_TI_assign_register
	.dwattr $C$DW$78, DW_AT_name("PC")
	.dwattr $C$DW$78, DW_AT_location[DW_OP_reg25]

$C$DW$79	.dwtag  DW_TAG_TI_assign_register
	.dwattr $C$DW$79, DW_AT_name("RPC")
	.dwattr $C$DW$79, DW_AT_location[DW_OP_reg26]

$C$DW$80	.dwtag  DW_TAG_TI_assign_register
	.dwattr $C$DW$80, DW_AT_name("FP")
	.dwattr $C$DW$80, DW_AT_location[DW_OP_reg28]

$C$DW$81	.dwtag  DW_TAG_TI_assign_register
	.dwattr $C$DW$81, DW_AT_name("DP")
	.dwattr $C$DW$81, DW_AT_location[DW_OP_reg29]

$C$DW$82	.dwtag  DW_TAG_TI_assign_register
	.dwattr $C$DW$82, DW_AT_name("SXM")
	.dwattr $C$DW$82, DW_AT_location[DW_OP_reg30]

$C$DW$83	.dwtag  DW_TAG_TI_assign_register
	.dwattr $C$DW$83, DW_AT_name("PM")
	.dwattr $C$DW$83, DW_AT_location[DW_OP_reg31]

$C$DW$84	.dwtag  DW_TAG_TI_assign_register
	.dwattr $C$DW$84, DW_AT_name("OVM")
	.dwattr $C$DW$84, DW_AT_location[DW_OP_regx 0x20]

$C$DW$85	.dwtag  DW_TAG_TI_assign_register
	.dwattr $C$DW$85, DW_AT_name("PAGE0")
	.dwattr $C$DW$85, DW_AT_location[DW_OP_regx 0x21]

$C$DW$86	.dwtag  DW_TAG_TI_assign_register
	.dwattr $C$DW$86, DW_AT_name("AMODE")
	.dwattr $C$DW$86, DW_AT_location[DW_OP_regx 0x22]

$C$DW$87	.dwtag  DW_TAG_TI_assign_register
	.dwattr $C$DW$87, DW_AT_name("INTM")
	.dwattr $C$DW$87, DW_AT_location[DW_OP_regx 0x23]

$C$DW$88	.dwtag  DW_TAG_TI_assign_register
	.dwattr $C$DW$88, DW_AT_name("IFR")
	.dwattr $C$DW$88, DW_AT_location[DW_OP_regx 0x24]

$C$DW$89	.dwtag  DW_TAG_TI_assign_register
	.dwattr $C$DW$89, DW_AT_name("IER")
	.dwattr $C$DW$89, DW_AT_location[DW_OP_regx 0x25]

$C$DW$90	.dwtag  DW_TAG_TI_assign_register
	.dwattr $C$DW$90, DW_AT_name("V")
	.dwattr $C$DW$90, DW_AT_location[DW_OP_regx 0x26]

$C$DW$91	.dwtag  DW_TAG_TI_assign_register
	.dwattr $C$DW$91, DW_AT_name("PSEUDOH")
	.dwattr $C$DW$91, DW_AT_location[DW_OP_regx 0x4c]

$C$DW$92	.dwtag  DW_TAG_TI_assign_register
	.dwattr $C$DW$92, DW_AT_name("VOL")
	.dwattr $C$DW$92, DW_AT_location[DW_OP_regx 0x4d]

$C$DW$93	.dwtag  DW_TAG_TI_assign_register
	.dwattr $C$DW$93, DW_AT_name("AR0")
	.dwattr $C$DW$93, DW_AT_location[DW_OP_reg4]

$C$DW$94	.dwtag  DW_TAG_TI_assign_register
	.dwattr $C$DW$94, DW_AT_name("XAR0")
	.dwattr $C$DW$94, DW_AT_location[DW_OP_reg5]

$C$DW$95	.dwtag  DW_TAG_TI_assign_register
	.dwattr $C$DW$95, DW_AT_name("AR1")
	.dwattr $C$DW$95, DW_AT_location[DW_OP_reg6]

$C$DW$96	.dwtag  DW_TAG_TI_assign_register
	.dwattr $C$DW$96, DW_AT_name("XAR1")
	.dwattr $C$DW$96, DW_AT_location[DW_OP_reg7]

$C$DW$97	.dwtag  DW_TAG_TI_assign_register
	.dwattr $C$DW$97, DW_AT_name("AR2")
	.dwattr $C$DW$97, DW_AT_location[DW_OP_reg8]

$C$DW$98	.dwtag  DW_TAG_TI_assign_register
	.dwattr $C$DW$98, DW_AT_name("XAR2")
	.dwattr $C$DW$98, DW_AT_location[DW_OP_reg9]

$C$DW$99	.dwtag  DW_TAG_TI_assign_register
	.dwattr $C$DW$99, DW_AT_name("AR3")
	.dwattr $C$DW$99, DW_AT_location[DW_OP_reg10]

$C$DW$100	.dwtag  DW_TAG_TI_assign_register
	.dwattr $C$DW$100, DW_AT_name("XAR3")
	.dwattr $C$DW$100, DW_AT_location[DW_OP_reg11]

$C$DW$101	.dwtag  DW_TAG_TI_assign_register
	.dwattr $C$DW$101, DW_AT_name("AR4")
	.dwattr $C$DW$101, DW_AT_location[DW_OP_reg12]

$C$DW$102	.dwtag  DW_TAG_TI_assign_register
	.dwattr $C$DW$102, DW_AT_name("XAR4")
	.dwattr $C$DW$102, DW_AT_location[DW_OP_reg13]

$C$DW$103	.dwtag  DW_TAG_TI_assign_register
	.dwattr $C$DW$103, DW_AT_name("AR5")
	.dwattr $C$DW$103, DW_AT_location[DW_OP_reg14]

$C$DW$104	.dwtag  DW_TAG_TI_assign_register
	.dwattr $C$DW$104, DW_AT_name("XAR5")
	.dwattr $C$DW$104, DW_AT_location[DW_OP_reg15]

$C$DW$105	.dwtag  DW_TAG_TI_assign_register
	.dwattr $C$DW$105, DW_AT_name("AR6")
	.dwattr $C$DW$105, DW_AT_location[DW_OP_reg16]

$C$DW$106	.dwtag  DW_TAG_TI_assign_register
	.dwattr $C$DW$106, DW_AT_name("XAR6")
	.dwattr $C$DW$106, DW_AT_location[DW_OP_reg17]

$C$DW$107	.dwtag  DW_TAG_TI_assign_register
	.dwattr $C$DW$107, DW_AT_name("AR7")
	.dwattr $C$DW$107, DW_AT_location[DW_OP_reg18]

$C$DW$108	.dwtag  DW_TAG_TI_assign_register
	.dwattr $C$DW$108, DW_AT_name("XAR7")
	.dwattr $C$DW$108, DW_AT_location[DW_OP_reg19]

	.dwendtag $C$DW$CU

