;***************************************************************
;* TMS320C2000 C/C++ Codegen                   PC v15.12.4.LTS *
;* Date/Time created: Thu Dec 05 16:10:21 2019                 *
;***************************************************************
	.compiler_opts --abi=coffabi --float_support=softlib --hll_source=on --mem_model:code=flat --mem_model:data=large --object_format=coff --quiet --silicon_version=28 --symdebug:dwarf --symdebug:dwarf_version=3 
FP	.set	XAR2

$C$DW$CU	.dwtag  DW_TAG_compile_unit
	.dwattr $C$DW$CU, DW_AT_name("../Source/prod.c")
	.dwattr $C$DW$CU, DW_AT_producer("TI TMS320C2000 C/C++ Codegen PC v15.12.4.LTS Copyright (c) 1996-2015 Texas Instruments Incorporated")
	.dwattr $C$DW$CU, DW_AT_TI_version(0x01)
	.dwattr $C$DW$CU, DW_AT_comp_dir("C:\Users\ebenton\Documents\CERDEC TS\Firmware\CANbus\Debug")
;**************************************************************
;* CINIT RECORDS                                              *
;**************************************************************
	.sect	".cinit"
	.align	1
	.field  	-1,16
	.field  	_cmd_mode+0,32
	.bits	0,16			; _cmd_mode @ 0

	.sect	".cinit"
	.align	1
	.field  	-2,16
	.field  	_VEL_U+0,32
	.bits	$C$FSL1,32		; _VEL_U @ 0

	.sect	".cinit"
	.align	1
	.field  	-2,16
	.field  	_POS_U+0,32
	.bits	$C$FSL2,32		; _POS_U @ 0


$C$DW$1	.dwtag  DW_TAG_subprogram
	.dwattr $C$DW$1, DW_AT_name("ad7738_resettare")
	.dwattr $C$DW$1, DW_AT_TI_symbol_name("_ad7738_resettare")
	.dwattr $C$DW$1, DW_AT_declaration
	.dwattr $C$DW$1, DW_AT_external
$C$DW$2	.dwtag  DW_TAG_formal_parameter
	.dwattr $C$DW$2, DW_AT_type(*$C$DW$T$36)

	.dwendtag $C$DW$1


$C$DW$3	.dwtag  DW_TAG_subprogram
	.dwattr $C$DW$3, DW_AT_name("ad7738_resetlimit")
	.dwattr $C$DW$3, DW_AT_TI_symbol_name("_ad7738_resetlimit")
	.dwattr $C$DW$3, DW_AT_declaration
	.dwattr $C$DW$3, DW_AT_external
$C$DW$4	.dwtag  DW_TAG_formal_parameter
	.dwattr $C$DW$4, DW_AT_type(*$C$DW$T$36)

	.dwendtag $C$DW$3


$C$DW$5	.dwtag  DW_TAG_subprogram
	.dwattr $C$DW$5, DW_AT_name("ad7738_resetpeak")
	.dwattr $C$DW$5, DW_AT_TI_symbol_name("_ad7738_resetpeak")
	.dwattr $C$DW$5, DW_AT_declaration
	.dwattr $C$DW$5, DW_AT_external
$C$DW$6	.dwtag  DW_TAG_formal_parameter
	.dwattr $C$DW$6, DW_AT_type(*$C$DW$T$36)

	.dwendtag $C$DW$5


$C$DW$7	.dwtag  DW_TAG_subprogram
	.dwattr $C$DW$7, DW_AT_name("ad7738_resetvall")
	.dwattr $C$DW$7, DW_AT_TI_symbol_name("_ad7738_resetvall")
	.dwattr $C$DW$7, DW_AT_declaration
	.dwattr $C$DW$7, DW_AT_external
$C$DW$8	.dwtag  DW_TAG_formal_parameter
	.dwattr $C$DW$8, DW_AT_type(*$C$DW$T$36)

	.dwendtag $C$DW$7


$C$DW$9	.dwtag  DW_TAG_subprogram
	.dwattr $C$DW$9, DW_AT_name("mcbsp_xmit")
	.dwattr $C$DW$9, DW_AT_TI_symbol_name("_mcbsp_xmit")
	.dwattr $C$DW$9, DW_AT_declaration
	.dwattr $C$DW$9, DW_AT_external
$C$DW$10	.dwtag  DW_TAG_formal_parameter
	.dwattr $C$DW$10, DW_AT_type(*$C$DW$T$11)

$C$DW$11	.dwtag  DW_TAG_formal_parameter
	.dwattr $C$DW$11, DW_AT_type(*$C$DW$T$10)

	.dwendtag $C$DW$9


$C$DW$12	.dwtag  DW_TAG_subprogram
	.dwattr $C$DW$12, DW_AT_name("latch_dac")
	.dwattr $C$DW$12, DW_AT_TI_symbol_name("_latch_dac")
	.dwattr $C$DW$12, DW_AT_declaration
	.dwattr $C$DW$12, DW_AT_external
	.dwendtag $C$DW$12


$C$DW$13	.dwtag  DW_TAG_subprogram
	.dwattr $C$DW$13, DW_AT_name("ad7738_setcal")
	.dwattr $C$DW$13, DW_AT_TI_symbol_name("_ad7738_setcal")
	.dwattr $C$DW$13, DW_AT_declaration
	.dwattr $C$DW$13, DW_AT_external
	.dwendtag $C$DW$13


$C$DW$14	.dwtag  DW_TAG_subprogram
	.dwattr $C$DW$14, DW_AT_name("ad7738_settemp")
	.dwattr $C$DW$14, DW_AT_TI_symbol_name("_ad7738_settemp")
	.dwattr $C$DW$14, DW_AT_declaration
	.dwattr $C$DW$14, DW_AT_external
$C$DW$15	.dwtag  DW_TAG_formal_parameter
	.dwattr $C$DW$15, DW_AT_type(*$C$DW$T$17)

	.dwendtag $C$DW$14


$C$DW$16	.dwtag  DW_TAG_subprogram
	.dwattr $C$DW$16, DW_AT_name("conf_default")
	.dwattr $C$DW$16, DW_AT_TI_symbol_name("_conf_default")
	.dwattr $C$DW$16, DW_AT_declaration
	.dwattr $C$DW$16, DW_AT_external
	.dwendtag $C$DW$16


$C$DW$17	.dwtag  DW_TAG_subprogram
	.dwattr $C$DW$17, DW_AT_name("ad7738_init")
	.dwattr $C$DW$17, DW_AT_TI_symbol_name("_ad7738_init")
	.dwattr $C$DW$17, DW_AT_declaration
	.dwattr $C$DW$17, DW_AT_external
	.dwendtag $C$DW$17


$C$DW$18	.dwtag  DW_TAG_subprogram
	.dwattr $C$DW$18, DW_AT_name("SPICANReset")
	.dwattr $C$DW$18, DW_AT_TI_symbol_name("_SPICANReset")
	.dwattr $C$DW$18, DW_AT_declaration
	.dwattr $C$DW$18, DW_AT_external
	.dwendtag $C$DW$18


$C$DW$19	.dwtag  DW_TAG_subprogram
	.dwattr $C$DW$19, DW_AT_name("SPICANWrite")
	.dwattr $C$DW$19, DW_AT_TI_symbol_name("_SPICANWrite")
	.dwattr $C$DW$19, DW_AT_declaration
	.dwattr $C$DW$19, DW_AT_external
$C$DW$20	.dwtag  DW_TAG_formal_parameter
	.dwattr $C$DW$20, DW_AT_type(*$C$DW$T$36)

$C$DW$21	.dwtag  DW_TAG_formal_parameter
	.dwattr $C$DW$21, DW_AT_type(*$C$DW$T$36)

	.dwendtag $C$DW$19


$C$DW$22	.dwtag  DW_TAG_subprogram
	.dwattr $C$DW$22, DW_AT_name("dac_setmode")
	.dwattr $C$DW$22, DW_AT_TI_symbol_name("_dac_setmode")
	.dwattr $C$DW$22, DW_AT_declaration
	.dwattr $C$DW$22, DW_AT_external
$C$DW$23	.dwtag  DW_TAG_formal_parameter
	.dwattr $C$DW$23, DW_AT_type(*$C$DW$T$10)

	.dwendtag $C$DW$22


$C$DW$24	.dwtag  DW_TAG_subprogram
	.dwattr $C$DW$24, DW_AT_name("ad7738_monclr")
	.dwattr $C$DW$24, DW_AT_TI_symbol_name("_ad7738_monclr")
	.dwattr $C$DW$24, DW_AT_declaration
	.dwattr $C$DW$24, DW_AT_external
	.dwendtag $C$DW$24


$C$DW$25	.dwtag  DW_TAG_subprogram
	.dwattr $C$DW$25, DW_AT_name("maf_rst")
	.dwattr $C$DW$25, DW_AT_TI_symbol_name("_maf_rst")
	.dwattr $C$DW$25, DW_AT_declaration
	.dwattr $C$DW$25, DW_AT_external
	.dwendtag $C$DW$25


$C$DW$26	.dwtag  DW_TAG_subprogram
	.dwattr $C$DW$26, DW_AT_name("velf_rst")
	.dwattr $C$DW$26, DW_AT_TI_symbol_name("_velf_rst")
	.dwattr $C$DW$26, DW_AT_declaration
	.dwattr $C$DW$26, DW_AT_external
	.dwendtag $C$DW$26

$C$DW$27	.dwtag  DW_TAG_variable
	.dwattr $C$DW$27, DW_AT_name("UNITS")
	.dwattr $C$DW$27, DW_AT_TI_symbol_name("_UNITS")
	.dwattr $C$DW$27, DW_AT_type(*$C$DW$T$372)
	.dwattr $C$DW$27, DW_AT_declaration
	.dwattr $C$DW$27, DW_AT_external

$C$DW$28	.dwtag  DW_TAG_variable
	.dwattr $C$DW$28, DW_AT_name("METHOD")
	.dwattr $C$DW$28, DW_AT_TI_symbol_name("_METHOD")
	.dwattr $C$DW$28, DW_AT_type(*$C$DW$T$372)
	.dwattr $C$DW$28, DW_AT_declaration
	.dwattr $C$DW$28, DW_AT_external

$C$DW$29	.dwtag  DW_TAG_variable
	.dwattr $C$DW$29, DW_AT_name("BAUD")
	.dwattr $C$DW$29, DW_AT_TI_symbol_name("_BAUD")
	.dwattr $C$DW$29, DW_AT_type(*$C$DW$T$337)
	.dwattr $C$DW$29, DW_AT_declaration
	.dwattr $C$DW$29, DW_AT_external

$C$DW$30	.dwtag  DW_TAG_variable
	.dwattr $C$DW$30, DW_AT_name("BITMAP")
	.dwattr $C$DW$30, DW_AT_TI_symbol_name("_BITMAP")
	.dwattr $C$DW$30, DW_AT_type(*$C$DW$T$297)
	.dwattr $C$DW$30, DW_AT_declaration
	.dwattr $C$DW$30, DW_AT_external

$C$DW$31	.dwtag  DW_TAG_variable
	.dwattr $C$DW$31, DW_AT_name("LPV")
	.dwattr $C$DW$31, DW_AT_TI_symbol_name("_LPV")
	.dwattr $C$DW$31, DW_AT_type(*$C$DW$T$372)
	.dwattr $C$DW$31, DW_AT_declaration
	.dwattr $C$DW$31, DW_AT_external

$C$DW$32	.dwtag  DW_TAG_variable
	.dwattr $C$DW$32, DW_AT_name("INTERFACE")
	.dwattr $C$DW$32, DW_AT_TI_symbol_name("_INTERFACE")
	.dwattr $C$DW$32, DW_AT_type(*$C$DW$T$372)
	.dwattr $C$DW$32, DW_AT_declaration
	.dwattr $C$DW$32, DW_AT_external


$C$DW$33	.dwtag  DW_TAG_subprogram
	.dwattr $C$DW$33, DW_AT_name("ds1820start")
	.dwattr $C$DW$33, DW_AT_TI_symbol_name("_ds1820start")
	.dwattr $C$DW$33, DW_AT_declaration
	.dwattr $C$DW$33, DW_AT_external
	.dwendtag $C$DW$33


$C$DW$34	.dwtag  DW_TAG_subprogram
	.dwattr $C$DW$34, DW_AT_name("configCAN")
	.dwattr $C$DW$34, DW_AT_TI_symbol_name("_configCAN")
	.dwattr $C$DW$34, DW_AT_declaration
	.dwattr $C$DW$34, DW_AT_external
	.dwendtag $C$DW$34


$C$DW$35	.dwtag  DW_TAG_subprogram
	.dwattr $C$DW$35, DW_AT_name("extio_init")
	.dwattr $C$DW$35, DW_AT_TI_symbol_name("_extio_init")
	.dwattr $C$DW$35, DW_AT_declaration
	.dwattr $C$DW$35, DW_AT_external
	.dwendtag $C$DW$35


$C$DW$36	.dwtag  DW_TAG_subprogram
	.dwattr $C$DW$36, DW_AT_name("gpio_init")
	.dwattr $C$DW$36, DW_AT_TI_symbol_name("_gpio_init")
	.dwattr $C$DW$36, DW_AT_declaration
	.dwattr $C$DW$36, DW_AT_external
	.dwendtag $C$DW$36


$C$DW$37	.dwtag  DW_TAG_subprogram
	.dwattr $C$DW$37, DW_AT_name("ssr_set")
	.dwattr $C$DW$37, DW_AT_TI_symbol_name("_ssr_set")
	.dwattr $C$DW$37, DW_AT_declaration
	.dwattr $C$DW$37, DW_AT_external
$C$DW$38	.dwtag  DW_TAG_formal_parameter
	.dwattr $C$DW$38, DW_AT_type(*$C$DW$T$36)

$C$DW$39	.dwtag  DW_TAG_formal_parameter
	.dwattr $C$DW$39, DW_AT_type(*$C$DW$T$10)

	.dwendtag $C$DW$37


$C$DW$40	.dwtag  DW_TAG_subprogram
	.dwattr $C$DW$40, DW_AT_name("uart_set_dir")
	.dwattr $C$DW$40, DW_AT_TI_symbol_name("_uart_set_dir")
	.dwattr $C$DW$40, DW_AT_declaration
	.dwattr $C$DW$40, DW_AT_external
$C$DW$41	.dwtag  DW_TAG_formal_parameter
	.dwattr $C$DW$41, DW_AT_type(*$C$DW$T$36)

	.dwendtag $C$DW$40


$C$DW$42	.dwtag  DW_TAG_subprogram
	.dwattr $C$DW$42, DW_AT_name("lcd_init")
	.dwattr $C$DW$42, DW_AT_TI_symbol_name("_lcd_init")
	.dwattr $C$DW$42, DW_AT_declaration
	.dwattr $C$DW$42, DW_AT_external
	.dwendtag $C$DW$42


$C$DW$43	.dwtag  DW_TAG_subprogram
	.dwattr $C$DW$43, DW_AT_name("lcd_clear")
	.dwattr $C$DW$43, DW_AT_TI_symbol_name("_lcd_clear")
	.dwattr $C$DW$43, DW_AT_declaration
	.dwattr $C$DW$43, DW_AT_external
	.dwendtag $C$DW$43


$C$DW$44	.dwtag  DW_TAG_subprogram
	.dwattr $C$DW$44, DW_AT_name("led_init")
	.dwattr $C$DW$44, DW_AT_TI_symbol_name("_led_init")
	.dwattr $C$DW$44, DW_AT_declaration
	.dwattr $C$DW$44, DW_AT_external
	.dwendtag $C$DW$44


$C$DW$45	.dwtag  DW_TAG_subprogram
	.dwattr $C$DW$45, DW_AT_name("led_set")
	.dwattr $C$DW$45, DW_AT_TI_symbol_name("_led_set")
	.dwattr $C$DW$45, DW_AT_declaration
	.dwattr $C$DW$45, DW_AT_external
$C$DW$46	.dwtag  DW_TAG_formal_parameter
	.dwattr $C$DW$46, DW_AT_type(*$C$DW$T$36)

$C$DW$47	.dwtag  DW_TAG_formal_parameter
	.dwattr $C$DW$47, DW_AT_type(*$C$DW$T$36)

	.dwendtag $C$DW$45


$C$DW$48	.dwtag  DW_TAG_subprogram
	.dwattr $C$DW$48, DW_AT_name("InitPieVectTable")
	.dwattr $C$DW$48, DW_AT_TI_symbol_name("_InitPieVectTable")
	.dwattr $C$DW$48, DW_AT_declaration
	.dwattr $C$DW$48, DW_AT_external
	.dwendtag $C$DW$48


$C$DW$49	.dwtag  DW_TAG_subprogram
	.dwattr $C$DW$49, DW_AT_name("delay_us")
	.dwattr $C$DW$49, DW_AT_TI_symbol_name("_delay_us")
	.dwattr $C$DW$49, DW_AT_declaration
	.dwattr $C$DW$49, DW_AT_external
$C$DW$50	.dwtag  DW_TAG_formal_parameter
	.dwattr $C$DW$50, DW_AT_type(*$C$DW$T$36)

	.dwendtag $C$DW$49


$C$DW$51	.dwtag  DW_TAG_subprogram
	.dwattr $C$DW$51, DW_AT_name("InitECan")
	.dwattr $C$DW$51, DW_AT_TI_symbol_name("_InitECan")
	.dwattr $C$DW$51, DW_AT_declaration
	.dwattr $C$DW$51, DW_AT_external
	.dwendtag $C$DW$51


$C$DW$52	.dwtag  DW_TAG_subprogram
	.dwattr $C$DW$52, DW_AT_name("InitPieCtrl")
	.dwattr $C$DW$52, DW_AT_TI_symbol_name("_InitPieCtrl")
	.dwattr $C$DW$52, DW_AT_declaration
	.dwattr $C$DW$52, DW_AT_external
	.dwendtag $C$DW$52


$C$DW$53	.dwtag  DW_TAG_subprogram
	.dwattr $C$DW$53, DW_AT_name("flash_init")
	.dwattr $C$DW$53, DW_AT_TI_symbol_name("_flash_init")
	.dwattr $C$DW$53, DW_AT_declaration
	.dwattr $C$DW$53, DW_AT_external
	.dwendtag $C$DW$53


$C$DW$54	.dwtag  DW_TAG_subprogram
	.dwattr $C$DW$54, DW_AT_name("shunt_switch")
	.dwattr $C$DW$54, DW_AT_TI_symbol_name("_shunt_switch")
	.dwattr $C$DW$54, DW_AT_declaration
	.dwattr $C$DW$54, DW_AT_external
$C$DW$55	.dwtag  DW_TAG_formal_parameter
	.dwattr $C$DW$55, DW_AT_type(*$C$DW$T$10)

	.dwendtag $C$DW$54


$C$DW$56	.dwtag  DW_TAG_subprogram
	.dwattr $C$DW$56, DW_AT_name("reboot")
	.dwattr $C$DW$56, DW_AT_TI_symbol_name("_reboot")
	.dwattr $C$DW$56, DW_AT_declaration
	.dwattr $C$DW$56, DW_AT_external
	.dwendtag $C$DW$56


$C$DW$57	.dwtag  DW_TAG_subprogram
	.dwattr $C$DW$57, DW_AT_name("sys_init")
	.dwattr $C$DW$57, DW_AT_TI_symbol_name("_sys_init")
	.dwattr $C$DW$57, DW_AT_declaration
	.dwattr $C$DW$57, DW_AT_external
	.dwendtag $C$DW$57


$C$DW$58	.dwtag  DW_TAG_subprogram
	.dwattr $C$DW$58, DW_AT_name("lcd_dputs")
	.dwattr $C$DW$58, DW_AT_TI_symbol_name("_lcd_dputs")
	.dwattr $C$DW$58, DW_AT_declaration
	.dwattr $C$DW$58, DW_AT_external
$C$DW$59	.dwtag  DW_TAG_formal_parameter
	.dwattr $C$DW$59, DW_AT_type(*$C$DW$T$163)

$C$DW$60	.dwtag  DW_TAG_formal_parameter
	.dwattr $C$DW$60, DW_AT_type(*$C$DW$T$36)

	.dwendtag $C$DW$58


$C$DW$61	.dwtag  DW_TAG_subprogram
	.dwattr $C$DW$61, DW_AT_name("lcd_puts")
	.dwattr $C$DW$61, DW_AT_TI_symbol_name("_lcd_puts")
	.dwattr $C$DW$61, DW_AT_declaration
	.dwattr $C$DW$61, DW_AT_external
$C$DW$62	.dwtag  DW_TAG_formal_parameter
	.dwattr $C$DW$62, DW_AT_type(*$C$DW$T$163)

$C$DW$63	.dwtag  DW_TAG_formal_parameter
	.dwattr $C$DW$63, DW_AT_type(*$C$DW$T$36)

	.dwendtag $C$DW$61


$C$DW$64	.dwtag  DW_TAG_subprogram
	.dwattr $C$DW$64, DW_AT_name("scia_init")
	.dwattr $C$DW$64, DW_AT_TI_symbol_name("_scia_init")
	.dwattr $C$DW$64, DW_AT_declaration
	.dwattr $C$DW$64, DW_AT_external
$C$DW$65	.dwtag  DW_TAG_formal_parameter
	.dwattr $C$DW$65, DW_AT_type(*$C$DW$T$90)

	.dwendtag $C$DW$64


$C$DW$66	.dwtag  DW_TAG_subprogram
	.dwattr $C$DW$66, DW_AT_name("scia_set_cmd_mode")
	.dwattr $C$DW$66, DW_AT_TI_symbol_name("_scia_set_cmd_mode")
	.dwattr $C$DW$66, DW_AT_declaration
	.dwattr $C$DW$66, DW_AT_external
$C$DW$67	.dwtag  DW_TAG_formal_parameter
	.dwattr $C$DW$67, DW_AT_type(*$C$DW$T$10)

	.dwendtag $C$DW$66

	.global	_cmd_mode
_cmd_mode:	.usect	".ebss",1,1,0
$C$DW$68	.dwtag  DW_TAG_variable
	.dwattr $C$DW$68, DW_AT_name("cmd_mode")
	.dwattr $C$DW$68, DW_AT_TI_symbol_name("_cmd_mode")
	.dwattr $C$DW$68, DW_AT_location[DW_OP_addr _cmd_mode]
	.dwattr $C$DW$68, DW_AT_type(*$C$DW$T$10)
	.dwattr $C$DW$68, DW_AT_external


$C$DW$69	.dwtag  DW_TAG_subprogram
	.dwattr $C$DW$69, DW_AT_name("scia_puts")
	.dwattr $C$DW$69, DW_AT_TI_symbol_name("_scia_puts")
	.dwattr $C$DW$69, DW_AT_type(*$C$DW$T$10)
	.dwattr $C$DW$69, DW_AT_declaration
	.dwattr $C$DW$69, DW_AT_external
$C$DW$70	.dwtag  DW_TAG_formal_parameter
	.dwattr $C$DW$70, DW_AT_type(*$C$DW$T$163)

	.dwendtag $C$DW$69


$C$DW$71	.dwtag  DW_TAG_subprogram
	.dwattr $C$DW$71, DW_AT_name("scia_getparam")
	.dwattr $C$DW$71, DW_AT_TI_symbol_name("_scia_getparam")
	.dwattr $C$DW$71, DW_AT_type(*$C$DW$T$36)
	.dwattr $C$DW$71, DW_AT_declaration
	.dwattr $C$DW$71, DW_AT_external
$C$DW$72	.dwtag  DW_TAG_formal_parameter
	.dwattr $C$DW$72, DW_AT_type(*$C$DW$T$163)

$C$DW$73	.dwtag  DW_TAG_formal_parameter
	.dwattr $C$DW$73, DW_AT_type(*$C$DW$T$163)

$C$DW$74	.dwtag  DW_TAG_formal_parameter
	.dwattr $C$DW$74, DW_AT_type(*$C$DW$T$36)

	.dwendtag $C$DW$71


$C$DW$75	.dwtag  DW_TAG_subprogram
	.dwattr $C$DW$75, DW_AT_name("SPICANRead")
	.dwattr $C$DW$75, DW_AT_TI_symbol_name("_SPICANRead")
	.dwattr $C$DW$75, DW_AT_type(*$C$DW$T$36)
	.dwattr $C$DW$75, DW_AT_declaration
	.dwattr $C$DW$75, DW_AT_external
$C$DW$76	.dwtag  DW_TAG_formal_parameter
	.dwattr $C$DW$76, DW_AT_type(*$C$DW$T$36)

	.dwendtag $C$DW$75


$C$DW$77	.dwtag  DW_TAG_subprogram
	.dwattr $C$DW$77, DW_AT_name("sprintf")
	.dwattr $C$DW$77, DW_AT_TI_symbol_name("_sprintf")
	.dwattr $C$DW$77, DW_AT_type(*$C$DW$T$10)
	.dwattr $C$DW$77, DW_AT_declaration
	.dwattr $C$DW$77, DW_AT_external
$C$DW$78	.dwtag  DW_TAG_formal_parameter
	.dwattr $C$DW$78, DW_AT_type(*$C$DW$T$163)

$C$DW$79	.dwtag  DW_TAG_formal_parameter
	.dwattr $C$DW$79, DW_AT_type(*$C$DW$T$177)

$C$DW$80	.dwtag  DW_TAG_unspecified_parameters

	.dwendtag $C$DW$77


$C$DW$81	.dwtag  DW_TAG_subprogram
	.dwattr $C$DW$81, DW_AT_name("SPICANReadStat")
	.dwattr $C$DW$81, DW_AT_TI_symbol_name("_SPICANReadStat")
	.dwattr $C$DW$81, DW_AT_type(*$C$DW$T$36)
	.dwattr $C$DW$81, DW_AT_declaration
	.dwattr $C$DW$81, DW_AT_external
	.dwendtag $C$DW$81


$C$DW$82	.dwtag  DW_TAG_subprogram
	.dwattr $C$DW$82, DW_AT_name("scia_send_bin")
	.dwattr $C$DW$82, DW_AT_TI_symbol_name("_scia_send_bin")
	.dwattr $C$DW$82, DW_AT_type(*$C$DW$T$10)
	.dwattr $C$DW$82, DW_AT_declaration
	.dwattr $C$DW$82, DW_AT_external
$C$DW$83	.dwtag  DW_TAG_formal_parameter
	.dwattr $C$DW$83, DW_AT_type(*$C$DW$T$163)

$C$DW$84	.dwtag  DW_TAG_formal_parameter
	.dwattr $C$DW$84, DW_AT_type(*$C$DW$T$10)

	.dwendtag $C$DW$82

$C$DW$85	.dwtag  DW_TAG_variable
	.dwattr $C$DW$85, DW_AT_name("port4004")
	.dwattr $C$DW$85, DW_AT_TI_symbol_name("_port4004")
	.dwattr $C$DW$85, DW_AT_type(*$C$DW$T$295)
	.dwattr $C$DW$85, DW_AT_declaration
	.dwattr $C$DW$85, DW_AT_external

$C$DW$86	.dwtag  DW_TAG_variable
	.dwattr $C$DW$86, DW_AT_name("secureRamFuncs_runstart")
	.dwattr $C$DW$86, DW_AT_TI_symbol_name("_secureRamFuncs_runstart")
	.dwattr $C$DW$86, DW_AT_type(*$C$DW$T$36)
	.dwattr $C$DW$86, DW_AT_declaration
	.dwattr $C$DW$86, DW_AT_external


$C$DW$87	.dwtag  DW_TAG_subprogram
	.dwattr $C$DW$87, DW_AT_name("atoi")
	.dwattr $C$DW$87, DW_AT_TI_symbol_name("_atoi")
	.dwattr $C$DW$87, DW_AT_type(*$C$DW$T$10)
	.dwattr $C$DW$87, DW_AT_declaration
	.dwattr $C$DW$87, DW_AT_external
$C$DW$88	.dwtag  DW_TAG_formal_parameter
	.dwattr $C$DW$88, DW_AT_type(*$C$DW$T$177)

	.dwendtag $C$DW$87

$C$DW$89	.dwtag  DW_TAG_variable
	.dwattr $C$DW$89, DW_AT_name("port400e")
	.dwattr $C$DW$89, DW_AT_TI_symbol_name("_port400e")
	.dwattr $C$DW$89, DW_AT_type(*$C$DW$T$295)
	.dwattr $C$DW$89, DW_AT_declaration
	.dwattr $C$DW$89, DW_AT_external

	.global	_autoidchanged
_autoidchanged:	.usect	".ebss",1,1,0
$C$DW$90	.dwtag  DW_TAG_variable
	.dwattr $C$DW$90, DW_AT_name("autoidchanged")
	.dwattr $C$DW$90, DW_AT_TI_symbol_name("_autoidchanged")
	.dwattr $C$DW$90, DW_AT_location[DW_OP_addr _autoidchanged]
	.dwattr $C$DW$90, DW_AT_type(*$C$DW$T$36)
	.dwattr $C$DW$90, DW_AT_external

$C$DW$91	.dwtag  DW_TAG_variable
	.dwattr $C$DW$91, DW_AT_name("Flash28_API_LoadEnd")
	.dwattr $C$DW$91, DW_AT_TI_symbol_name("_Flash28_API_LoadEnd")
	.dwattr $C$DW$91, DW_AT_type(*$C$DW$T$36)
	.dwattr $C$DW$91, DW_AT_declaration
	.dwattr $C$DW$91, DW_AT_external

$C$DW$92	.dwtag  DW_TAG_variable
	.dwattr $C$DW$92, DW_AT_name("Flash28_API_LoadStart")
	.dwattr $C$DW$92, DW_AT_TI_symbol_name("_Flash28_API_LoadStart")
	.dwattr $C$DW$92, DW_AT_type(*$C$DW$T$36)
	.dwattr $C$DW$92, DW_AT_declaration
	.dwattr $C$DW$92, DW_AT_external

$C$DW$93	.dwtag  DW_TAG_variable
	.dwattr $C$DW$93, DW_AT_name("secureRamFuncs_loadstart")
	.dwattr $C$DW$93, DW_AT_TI_symbol_name("_secureRamFuncs_loadstart")
	.dwattr $C$DW$93, DW_AT_type(*$C$DW$T$36)
	.dwattr $C$DW$93, DW_AT_declaration
	.dwattr $C$DW$93, DW_AT_external

$C$DW$94	.dwtag  DW_TAG_variable
	.dwattr $C$DW$94, DW_AT_name("Flash28_API_RunStart")
	.dwattr $C$DW$94, DW_AT_TI_symbol_name("_Flash28_API_RunStart")
	.dwattr $C$DW$94, DW_AT_type(*$C$DW$T$36)
	.dwattr $C$DW$94, DW_AT_declaration
	.dwattr $C$DW$94, DW_AT_external

$C$DW$95	.dwtag  DW_TAG_variable
	.dwattr $C$DW$95, DW_AT_name("secureRamFuncs_loadend")
	.dwattr $C$DW$95, DW_AT_TI_symbol_name("_secureRamFuncs_loadend")
	.dwattr $C$DW$95, DW_AT_type(*$C$DW$T$36)
	.dwattr $C$DW$95, DW_AT_declaration
	.dwattr $C$DW$95, DW_AT_external


$C$DW$96	.dwtag  DW_TAG_subprogram
	.dwattr $C$DW$96, DW_AT_name("ad7738_tempstart")
	.dwattr $C$DW$96, DW_AT_TI_symbol_name("_ad7738_tempstart")
	.dwattr $C$DW$96, DW_AT_type(*$C$DW$T$10)
	.dwattr $C$DW$96, DW_AT_declaration
	.dwattr $C$DW$96, DW_AT_external
	.dwendtag $C$DW$96


$C$DW$97	.dwtag  DW_TAG_subprogram
	.dwattr $C$DW$97, DW_AT_name("conf_write")
	.dwattr $C$DW$97, DW_AT_TI_symbol_name("_conf_write")
	.dwattr $C$DW$97, DW_AT_type(*$C$DW$T$36)
	.dwattr $C$DW$97, DW_AT_declaration
	.dwattr $C$DW$97, DW_AT_external
	.dwendtag $C$DW$97


$C$DW$98	.dwtag  DW_TAG_subprogram
	.dwattr $C$DW$98, DW_AT_name("ad7738_tagsdetect")
	.dwattr $C$DW$98, DW_AT_TI_symbol_name("_ad7738_tagsdetect")
	.dwattr $C$DW$98, DW_AT_type(*$C$DW$T$10)
	.dwattr $C$DW$98, DW_AT_declaration
	.dwattr $C$DW$98, DW_AT_external
	.dwendtag $C$DW$98


$C$DW$99	.dwtag  DW_TAG_subprogram
	.dwattr $C$DW$99, DW_AT_name("ad7738_tempread")
	.dwattr $C$DW$99, DW_AT_TI_symbol_name("_ad7738_tempread")
	.dwattr $C$DW$99, DW_AT_type(*$C$DW$T$10)
	.dwattr $C$DW$99, DW_AT_declaration
	.dwattr $C$DW$99, DW_AT_external
	.dwendtag $C$DW$99


$C$DW$100	.dwtag  DW_TAG_subprogram
	.dwattr $C$DW$100, DW_AT_name("ad7738_rawrdy")
	.dwattr $C$DW$100, DW_AT_TI_symbol_name("_ad7738_rawrdy")
	.dwattr $C$DW$100, DW_AT_type(*$C$DW$T$10)
	.dwattr $C$DW$100, DW_AT_declaration
	.dwattr $C$DW$100, DW_AT_external
	.dwendtag $C$DW$100


$C$DW$101	.dwtag  DW_TAG_subprogram
	.dwattr $C$DW$101, DW_AT_name("ad7738_monrdy")
	.dwattr $C$DW$101, DW_AT_TI_symbol_name("_ad7738_monrdy")
	.dwattr $C$DW$101, DW_AT_type(*$C$DW$T$10)
	.dwattr $C$DW$101, DW_AT_declaration
	.dwattr $C$DW$101, DW_AT_external
	.dwendtag $C$DW$101


$C$DW$102	.dwtag  DW_TAG_subprogram
	.dwattr $C$DW$102, DW_AT_name("ad7738_getlimitchgd")
	.dwattr $C$DW$102, DW_AT_TI_symbol_name("_ad7738_getlimitchgd")
	.dwattr $C$DW$102, DW_AT_type(*$C$DW$T$10)
	.dwattr $C$DW$102, DW_AT_declaration
	.dwattr $C$DW$102, DW_AT_external
	.dwendtag $C$DW$102


$C$DW$103	.dwtag  DW_TAG_subprogram
	.dwattr $C$DW$103, DW_AT_name("ad7738_getlimitst")
	.dwattr $C$DW$103, DW_AT_TI_symbol_name("_ad7738_getlimitst")
	.dwattr $C$DW$103, DW_AT_type(*$C$DW$T$36)
	.dwattr $C$DW$103, DW_AT_declaration
	.dwattr $C$DW$103, DW_AT_external
$C$DW$104	.dwtag  DW_TAG_formal_parameter
	.dwattr $C$DW$104, DW_AT_type(*$C$DW$T$10)

	.dwendtag $C$DW$103


$C$DW$105	.dwtag  DW_TAG_subprogram
	.dwattr $C$DW$105, DW_AT_name("conf_read")
	.dwattr $C$DW$105, DW_AT_TI_symbol_name("_conf_read")
	.dwattr $C$DW$105, DW_AT_type(*$C$DW$T$36)
	.dwattr $C$DW$105, DW_AT_declaration
	.dwattr $C$DW$105, DW_AT_external
	.dwendtag $C$DW$105


$C$DW$106	.dwtag  DW_TAG_subprogram
	.dwattr $C$DW$106, DW_AT_name("tagdetect")
	.dwattr $C$DW$106, DW_AT_TI_symbol_name("_tagdetect")
	.dwattr $C$DW$106, DW_AT_type(*$C$DW$T$10)
	.dwattr $C$DW$106, DW_AT_declaration
	.dwattr $C$DW$106, DW_AT_external
$C$DW$107	.dwtag  DW_TAG_formal_parameter
	.dwattr $C$DW$107, DW_AT_type(*$C$DW$T$36)

	.dwendtag $C$DW$106


$C$DW$108	.dwtag  DW_TAG_subprogram
	.dwattr $C$DW$108, DW_AT_name("scia_rx_getcmd")
	.dwattr $C$DW$108, DW_AT_TI_symbol_name("_scia_rx_getcmd")
	.dwattr $C$DW$108, DW_AT_type(*$C$DW$T$36)
	.dwattr $C$DW$108, DW_AT_declaration
	.dwattr $C$DW$108, DW_AT_external
$C$DW$109	.dwtag  DW_TAG_formal_parameter
	.dwattr $C$DW$109, DW_AT_type(*$C$DW$T$163)

$C$DW$110	.dwtag  DW_TAG_formal_parameter
	.dwattr $C$DW$110, DW_AT_type(*$C$DW$T$36)

	.dwendtag $C$DW$108


$C$DW$111	.dwtag  DW_TAG_subprogram
	.dwattr $C$DW$111, DW_AT_name("scia_rx_getcmds")
	.dwattr $C$DW$111, DW_AT_TI_symbol_name("_scia_rx_getcmds")
	.dwattr $C$DW$111, DW_AT_type(*$C$DW$T$36)
	.dwattr $C$DW$111, DW_AT_declaration
	.dwattr $C$DW$111, DW_AT_external
	.dwendtag $C$DW$111


$C$DW$112	.dwtag  DW_TAG_subprogram
	.dwattr $C$DW$112, DW_AT_name("strtod")
	.dwattr $C$DW$112, DW_AT_TI_symbol_name("_strtod")
	.dwattr $C$DW$112, DW_AT_type(*$C$DW$T$17)
	.dwattr $C$DW$112, DW_AT_declaration
	.dwattr $C$DW$112, DW_AT_external
$C$DW$113	.dwtag  DW_TAG_formal_parameter
	.dwattr $C$DW$113, DW_AT_type(*$C$DW$T$177)

$C$DW$114	.dwtag  DW_TAG_formal_parameter
	.dwattr $C$DW$114, DW_AT_type(*$C$DW$T$357)

	.dwendtag $C$DW$112

	.global	_VEL_U
_VEL_U:	.usect	".ebss",2,1,1
$C$DW$115	.dwtag  DW_TAG_variable
	.dwattr $C$DW$115, DW_AT_name("VEL_U")
	.dwattr $C$DW$115, DW_AT_TI_symbol_name("_VEL_U")
	.dwattr $C$DW$115, DW_AT_location[DW_OP_addr _VEL_U]
	.dwattr $C$DW$115, DW_AT_type(*$C$DW$T$177)
	.dwattr $C$DW$115, DW_AT_external

	.global	_POS_U
_POS_U:	.usect	".ebss",2,1,1
$C$DW$116	.dwtag  DW_TAG_variable
	.dwattr $C$DW$116, DW_AT_name("POS_U")
	.dwattr $C$DW$116, DW_AT_TI_symbol_name("_POS_U")
	.dwattr $C$DW$116, DW_AT_location[DW_OP_addr _POS_U]
	.dwattr $C$DW$116, DW_AT_type(*$C$DW$T$177)
	.dwattr $C$DW$116, DW_AT_external


$C$DW$117	.dwtag  DW_TAG_subprogram
	.dwattr $C$DW$117, DW_AT_name("__builtin_strlen")
	.dwattr $C$DW$117, DW_AT_TI_symbol_name("___builtin_strlen")
	.dwattr $C$DW$117, DW_AT_type(*$C$DW$T$13)
	.dwattr $C$DW$117, DW_AT_declaration
	.dwattr $C$DW$117, DW_AT_external
$C$DW$118	.dwtag  DW_TAG_formal_parameter
	.dwattr $C$DW$118, DW_AT_type(*$C$DW$T$177)

	.dwendtag $C$DW$117


$C$DW$119	.dwtag  DW_TAG_subprogram
	.dwattr $C$DW$119, DW_AT_name("memcpy")
	.dwattr $C$DW$119, DW_AT_TI_symbol_name("_memcpy")
	.dwattr $C$DW$119, DW_AT_type(*$C$DW$T$3)
	.dwattr $C$DW$119, DW_AT_declaration
	.dwattr $C$DW$119, DW_AT_external
$C$DW$120	.dwtag  DW_TAG_formal_parameter
	.dwattr $C$DW$120, DW_AT_type(*$C$DW$T$3)

$C$DW$121	.dwtag  DW_TAG_formal_parameter
	.dwattr $C$DW$121, DW_AT_type(*$C$DW$T$148)

$C$DW$122	.dwtag  DW_TAG_formal_parameter
	.dwattr $C$DW$122, DW_AT_type(*$C$DW$T$149)

	.dwendtag $C$DW$119


$C$DW$123	.dwtag  DW_TAG_subprogram
	.dwattr $C$DW$123, DW_AT_name("atol")
	.dwattr $C$DW$123, DW_AT_TI_symbol_name("_atol")
	.dwattr $C$DW$123, DW_AT_type(*$C$DW$T$12)
	.dwattr $C$DW$123, DW_AT_declaration
	.dwattr $C$DW$123, DW_AT_external
$C$DW$124	.dwtag  DW_TAG_formal_parameter
	.dwattr $C$DW$124, DW_AT_type(*$C$DW$T$177)

	.dwendtag $C$DW$123


$C$DW$125	.dwtag  DW_TAG_subprogram
	.dwattr $C$DW$125, DW_AT_name("ad7738_getmon")
	.dwattr $C$DW$125, DW_AT_TI_symbol_name("_ad7738_getmon")
	.dwattr $C$DW$125, DW_AT_type(*$C$DW$T$122)
	.dwattr $C$DW$125, DW_AT_declaration
	.dwattr $C$DW$125, DW_AT_external
	.dwendtag $C$DW$125


$C$DW$126	.dwtag  DW_TAG_subprogram
	.dwattr $C$DW$126, DW_AT_name("ds1820read")
	.dwattr $C$DW$126, DW_AT_TI_symbol_name("_ds1820read")
	.dwattr $C$DW$126, DW_AT_type(*$C$DW$T$17)
	.dwattr $C$DW$126, DW_AT_declaration
	.dwattr $C$DW$126, DW_AT_external
	.dwendtag $C$DW$126


$C$DW$127	.dwtag  DW_TAG_subprogram
	.dwattr $C$DW$127, DW_AT_name("prod_getnext")
	.dwattr $C$DW$127, DW_AT_TI_symbol_name("_prod_getnext")
	.dwattr $C$DW$127, DW_AT_type(*$C$DW$T$122)
	.dwattr $C$DW$127, DW_AT_declaration
	.dwattr $C$DW$127, DW_AT_external
	.dwendtag $C$DW$127

$C$DW$128	.dwtag  DW_TAG_variable
	.dwattr $C$DW$128, DW_AT_name("Flash_CPUScaleFactor")
	.dwattr $C$DW$128, DW_AT_TI_symbol_name("_Flash_CPUScaleFactor")
	.dwattr $C$DW$128, DW_AT_type(*$C$DW$T$90)
	.dwattr $C$DW$128, DW_AT_declaration
	.dwattr $C$DW$128, DW_AT_external

$C$DW$129	.dwtag  DW_TAG_variable
	.dwattr $C$DW$129, DW_AT_name("Flash_CallbackPtr")
	.dwattr $C$DW$129, DW_AT_TI_symbol_name("_Flash_CallbackPtr")
	.dwattr $C$DW$129, DW_AT_type(*$C$DW$T$152)
	.dwattr $C$DW$129, DW_AT_declaration
	.dwattr $C$DW$129, DW_AT_external


$C$DW$130	.dwtag  DW_TAG_subprogram
	.dwattr $C$DW$130, DW_AT_name("ad7738_getvall")
	.dwattr $C$DW$130, DW_AT_TI_symbol_name("_ad7738_getvall")
	.dwattr $C$DW$130, DW_AT_type(*$C$DW$T$122)
	.dwattr $C$DW$130, DW_AT_declaration
	.dwattr $C$DW$130, DW_AT_external
	.dwendtag $C$DW$130


$C$DW$131	.dwtag  DW_TAG_subprogram
	.dwattr $C$DW$131, DW_AT_name("ad7738_getpeak")
	.dwattr $C$DW$131, DW_AT_TI_symbol_name("_ad7738_getpeak")
	.dwattr $C$DW$131, DW_AT_type(*$C$DW$T$122)
	.dwattr $C$DW$131, DW_AT_declaration
	.dwattr $C$DW$131, DW_AT_external
	.dwendtag $C$DW$131


$C$DW$132	.dwtag  DW_TAG_subprogram
	.dwattr $C$DW$132, DW_AT_name("strlen")
	.dwattr $C$DW$132, DW_AT_TI_symbol_name("_strlen")
	.dwattr $C$DW$132, DW_AT_type(*$C$DW$T$149)
	.dwattr $C$DW$132, DW_AT_declaration
	.dwattr $C$DW$132, DW_AT_external
$C$DW$133	.dwtag  DW_TAG_formal_parameter
	.dwattr $C$DW$133, DW_AT_type(*$C$DW$T$177)

	.dwendtag $C$DW$132


$C$DW$134	.dwtag  DW_TAG_subprogram
	.dwattr $C$DW$134, DW_AT_name("ad7738_getraw")
	.dwattr $C$DW$134, DW_AT_TI_symbol_name("_ad7738_getraw")
	.dwattr $C$DW$134, DW_AT_type(*$C$DW$T$116)
	.dwattr $C$DW$134, DW_AT_declaration
	.dwattr $C$DW$134, DW_AT_external
	.dwendtag $C$DW$134


$C$DW$135	.dwtag  DW_TAG_subprogram
	.dwattr $C$DW$135, DW_AT_name("prod_getavail")
	.dwattr $C$DW$135, DW_AT_TI_symbol_name("_prod_getavail")
	.dwattr $C$DW$135, DW_AT_type(*$C$DW$T$90)
	.dwattr $C$DW$135, DW_AT_declaration
	.dwattr $C$DW$135, DW_AT_external
	.dwendtag $C$DW$135

	.global	_autoid
_autoid:	.usect	".ebss",4,1,0
$C$DW$136	.dwtag  DW_TAG_variable
	.dwattr $C$DW$136, DW_AT_name("autoid")
	.dwattr $C$DW$136, DW_AT_TI_symbol_name("_autoid")
	.dwattr $C$DW$136, DW_AT_location[DW_OP_addr _autoid]
	.dwattr $C$DW$136, DW_AT_type(*$C$DW$T$87)
	.dwattr $C$DW$136, DW_AT_external

	.global	_tagwasthere
_tagwasthere:	.usect	".ebss",4,1,0
$C$DW$137	.dwtag  DW_TAG_variable
	.dwattr $C$DW$137, DW_AT_name("tagwasthere")
	.dwattr $C$DW$137, DW_AT_TI_symbol_name("_tagwasthere")
	.dwattr $C$DW$137, DW_AT_location[DW_OP_addr _tagwasthere]
	.dwattr $C$DW$137, DW_AT_type(*$C$DW$T$87)
	.dwattr $C$DW$137, DW_AT_external


$C$DW$138	.dwtag  DW_TAG_subprogram
	.dwattr $C$DW$138, DW_AT_name("tagid")
	.dwattr $C$DW$138, DW_AT_TI_symbol_name("_tagid")
	.dwattr $C$DW$138, DW_AT_type(*$C$DW$T$15)
	.dwattr $C$DW$138, DW_AT_declaration
	.dwattr $C$DW$138, DW_AT_external
$C$DW$139	.dwtag  DW_TAG_formal_parameter
	.dwattr $C$DW$139, DW_AT_type(*$C$DW$T$36)

	.dwendtag $C$DW$138

	.global	_rtc
_rtc:	.usect	".ebss",7,1,0
$C$DW$140	.dwtag  DW_TAG_variable
	.dwattr $C$DW$140, DW_AT_name("rtc")
	.dwattr $C$DW$140, DW_AT_TI_symbol_name("_rtc")
	.dwattr $C$DW$140, DW_AT_location[DW_OP_addr _rtc]
	.dwattr $C$DW$140, DW_AT_type(*$C$DW$T$111)
	.dwattr $C$DW$140, DW_AT_external

_buff$8:	.usect	".ebss",8,1,0
$C$DW$141	.dwtag  DW_TAG_variable
	.dwattr $C$DW$141, DW_AT_name("GpioDataRegs")
	.dwattr $C$DW$141, DW_AT_TI_symbol_name("_GpioDataRegs")
	.dwattr $C$DW$141, DW_AT_type(*$C$DW$T$136)
	.dwattr $C$DW$141, DW_AT_declaration
	.dwattr $C$DW$141, DW_AT_external

_buff$7:	.usect	".ebss",64,1,0
_buff$5:	.usect	".ebss",64,1,0
_buff$6:	.usect	".ebss",64,1,0
_buff$3:	.usect	".ebss",100,1,0
_buff$4:	.usect	".ebss",100,1,0
	.global	_tsensor
_tsensor:	.usect	".ebss",152,1,1
$C$DW$142	.dwtag  DW_TAG_variable
	.dwattr $C$DW$142, DW_AT_name("tsensor")
	.dwattr $C$DW$142, DW_AT_TI_symbol_name("_tsensor")
	.dwattr $C$DW$142, DW_AT_location[DW_OP_addr _tsensor]
	.dwattr $C$DW$142, DW_AT_type(*$C$DW$T$95)
	.dwattr $C$DW$142, DW_AT_external

$C$DW$143	.dwtag  DW_TAG_variable
	.dwattr $C$DW$143, DW_AT_name("_ctypes_")
	.dwattr $C$DW$143, DW_AT_TI_symbol_name("__ctypes_")
	.dwattr $C$DW$143, DW_AT_type(*$C$DW$T$173)
	.dwattr $C$DW$143, DW_AT_declaration
	.dwattr $C$DW$143, DW_AT_external

	.global	_fileOb
_fileOb:	.usect	".ebss",534,1,1
$C$DW$144	.dwtag  DW_TAG_variable
	.dwattr $C$DW$144, DW_AT_name("fileOb")
	.dwattr $C$DW$144, DW_AT_TI_symbol_name("_fileOb")
	.dwattr $C$DW$144, DW_AT_location[DW_OP_addr _fileOb]
	.dwattr $C$DW$144, DW_AT_type(*$C$DW$T$110)
	.dwattr $C$DW$144, DW_AT_external

	.global	_Fatfs
_Fatfs:	.usect	".ebss",540,1,1
$C$DW$145	.dwtag  DW_TAG_variable
	.dwattr $C$DW$145, DW_AT_name("Fatfs")
	.dwattr $C$DW$145, DW_AT_TI_symbol_name("_Fatfs")
	.dwattr $C$DW$145, DW_AT_location[DW_OP_addr _Fatfs]
	.dwattr $C$DW$145, DW_AT_type(*$C$DW$T$24)
	.dwattr $C$DW$145, DW_AT_external

_buff$1:	.usect	".ebss",1024,1,0
_cmdbuff$2:	.usect	".ebss",1024,1,0
$C$DW$146	.dwtag  DW_TAG_variable
	.dwattr $C$DW$146, DW_AT_name("conf_data")
	.dwattr $C$DW$146, DW_AT_TI_symbol_name("_conf_data")
	.dwattr $C$DW$146, DW_AT_type(*$C$DW$T$143)
	.dwattr $C$DW$146, DW_AT_declaration
	.dwattr $C$DW$146, DW_AT_external

;	C:\ti\ccsv6\tools\compiler\ti-cgt-c2000_15.12.4.LTS\bin\opt2000.exe C:\\Users\\ebenton\\AppData\\Local\\Temp\\101082 C:\\Users\\ebenton\\AppData\\Local\\Temp\\101084 
;	C:\ti\ccsv6\tools\compiler\ti-cgt-c2000_15.12.4.LTS\bin\ac2000.exe -@C:\\Users\\ebenton\\AppData\\Local\\Temp\\1010812 
	.sect	".text"
	.clink
	.global	_update_units

$C$DW$147	.dwtag  DW_TAG_subprogram
	.dwattr $C$DW$147, DW_AT_name("update_units")
	.dwattr $C$DW$147, DW_AT_low_pc(_update_units)
	.dwattr $C$DW$147, DW_AT_high_pc(0x00)
	.dwattr $C$DW$147, DW_AT_TI_symbol_name("_update_units")
	.dwattr $C$DW$147, DW_AT_external
	.dwattr $C$DW$147, DW_AT_TI_begin_file("../Source/prod.c")
	.dwattr $C$DW$147, DW_AT_TI_begin_line(0x17a5)
	.dwattr $C$DW$147, DW_AT_TI_begin_column(0x06)
	.dwattr $C$DW$147, DW_AT_TI_max_frame_size(-14)
	.dwpsn	file "../Source/prod.c",line 6053,column 25,is_stmt,address _update_units,isa 0

	.dwfde $C$DW$CIE, _update_units
$C$DW$148	.dwtag  DW_TAG_variable
	.dwattr $C$DW$148, DW_AT_name("buff")
	.dwattr $C$DW$148, DW_AT_TI_symbol_name("_buff$8")
	.dwattr $C$DW$148, DW_AT_type(*$C$DW$T$378)
	.dwattr $C$DW$148, DW_AT_location[DW_OP_addr _buff$8]

;----------------------------------------------------------------------
; 6053 | void update_units(void) {                                              
; 6055 | int l;                                                                 
; 6056 | static char buff[8];                                                   
;----------------------------------------------------------------------

;***************************************************************
;* FNAME: _update_units                 FR SIZE:  12           *
;*                                                             *
;* FUNCTION ENVIRONMENT                                        *
;*                                                             *
;* FUNCTION PROPERTIES                                         *
;*                            3 Parameter,  3 Auto,  6 SOE     *
;***************************************************************

_update_units:
;* AR3   assigned to $O$C1
;* AR4   assigned to $O$C2
;* AR3   assigned to $O$C3
;* AR1   assigned to $O$U4
;* AR2   assigned to $O$U9
;* AR1   assigned to $O$U3
	.dwcfi	cfa_offset, -2
	.dwcfi	save_reg_to_mem, 26, 0
        MOVL      *SP++,XAR1            ; [CPU_] 
	.dwcfi	save_reg_to_mem, 7, 2
	.dwcfi	cfa_offset, -4
        MOVL      *SP++,XAR2            ; [CPU_] 
	.dwcfi	save_reg_to_mem, 9, 4
	.dwcfi	cfa_offset, -6
        MOVL      *SP++,XAR3            ; [CPU_] 
	.dwcfi	save_reg_to_mem, 11, 6
	.dwcfi	cfa_offset, -8
        ADDB      SP,#6                 ; [CPU_U] 
	.dwcfi	cfa_offset, -14
	.dwpsn	file "../Source/prod.c",line 6058,column 2,is_stmt,isa 0
;----------------------------------------------------------------------
; 6058 | lcd_clear();                                                           
; 6059 | for (l = 0; l < VFD_MAX; l++) {                                        
;----------------------------------------------------------------------
$C$DW$149	.dwtag  DW_TAG_TI_branch
	.dwattr $C$DW$149, DW_AT_low_pc(0x00)
	.dwattr $C$DW$149, DW_AT_name("_lcd_clear")
	.dwattr $C$DW$149, DW_AT_TI_call

        LCR       #_lcd_clear           ; [CPU_] |6058| 
        ; call occurs [#_lcd_clear] ; [] |6058| 
        MOVL      XAR4,#_conf_data      ; [CPU_U] 
        MOV       *-SP[4],#3            ; [CPU_] 
        MOVL      ACC,XAR4              ; [CPU_] 
        MOVL      *-SP[6],XAR4          ; [CPU_] 
        ADD       ACC,#1561 << 1        ; [CPU_] 
        MOVL      XAR2,ACC              ; [CPU_] 
        MOVB      XAR1,#0               ; [CPU_] 
$C$L1:    
        CLRC      SXM                   ; [CPU_] 
	.dwpsn	file "../Source/prod.c",line 6060,column 3,is_stmt,isa 0
;----------------------------------------------------------------------
; 6060 | lcd_puts((char*) LPV[conf_data.vfd[l].what], 20 * l);                  
;----------------------------------------------------------------------
        MOVL      XAR4,#_LPV            ; [CPU_U] |6060| 
        MOV       ACC,*+XAR2[0] << 1    ; [CPU_] |6060| 
        ADDL      XAR4,ACC              ; [CPU_] |6060| 
        MOV       AL,AR1                ; [CPU_] |6060| 
        MOVL      XAR4,*+XAR4[0]        ; [CPU_] |6060| 
$C$DW$150	.dwtag  DW_TAG_TI_branch
	.dwattr $C$DW$150, DW_AT_low_pc(0x00)
	.dwattr $C$DW$150, DW_AT_name("_lcd_puts")
	.dwattr $C$DW$150, DW_AT_TI_call

        LCR       #_lcd_puts            ; [CPU_] |6060| 
        ; call occurs [#_lcd_puts] ; [] |6060| 
	.dwpsn	file "../Source/prod.c",line 6061,column 3,is_stmt,isa 0
;----------------------------------------------------------------------
; 6061 | switch (conf_data.vfd[l].what) {                                       
; 6062 | case VFD_LOAD:                                                         
; 6063 | case VFD_PEAK:                                                         
; 6064 | case VFD_VALL:                                                         
; 6065 | case VFD_POSI:                                                         
; 6066 | case VFD_VELO:                                                         
;----------------------------------------------------------------------
        MOV       AL,*+XAR2[0]          ; [CPU_] |6061| 
        CMPB      AL,#4                 ; [CPU_] |6061| 
        B         $C$L2,LOS             ; [CPU_] |6061| 
        ; branchcc occurs ; [] |6061| 
        CMPB      AL,#5                 ; [CPU_] |6061| 
        B         $C$L8,EQ              ; [CPU_] |6061| 
        ; branchcc occurs ; [] |6061| 
        CMPB      AL,#6                 ; [CPU_] |6061| 
        B         $C$L7,EQ              ; [CPU_] |6061| 
        ; branchcc occurs ; [] |6061| 
        B         $C$L10,UNC            ; [CPU_] |6061| 
        ; branch occurs ; [] |6061| 
$C$L2:    
	.dwpsn	file "../Source/prod.c",line 6067,column 4,is_stmt,isa 0
;----------------------------------------------------------------------
; 6067 | sprintf(buff, " %u", conf_data.vfd[l].ch + 1);                         
;----------------------------------------------------------------------
        MOVL      XAR4,#$C$FSL3         ; [CPU_U] |6067| 
        MOVL      XAR3,#_buff$8         ; [CPU_U] |6067| 
        MOVL      *-SP[2],XAR4          ; [CPU_] |6067| 
        MOV       AL,*+XAR2[1]          ; [CPU_] |6067| 
        ADDB      AL,#1                 ; [CPU_] |6067| 
        MOVL      XAR4,XAR3             ; [CPU_] |6067| 
        MOV       *-SP[3],AL            ; [CPU_] |6067| 
$C$DW$151	.dwtag  DW_TAG_TI_branch
	.dwattr $C$DW$151, DW_AT_low_pc(0x00)
	.dwattr $C$DW$151, DW_AT_name("_sprintf")
	.dwattr $C$DW$151, DW_AT_TI_call

        LCR       #_sprintf             ; [CPU_] |6067| 
        ; call occurs [#_sprintf] ; [] |6067| 
	.dwpsn	file "../Source/prod.c",line 6068,column 4,is_stmt,isa 0
;----------------------------------------------------------------------
; 6068 | lcd_puts(buff, 4 + 20 * l);                                            
;----------------------------------------------------------------------
        MOVB      AL,#4                 ; [CPU_] |6068| 
        ADD       AL,AR1                ; [CPU_] |6068| 
        MOVL      XAR4,XAR3             ; [CPU_] |6068| 
$C$DW$152	.dwtag  DW_TAG_TI_branch
	.dwattr $C$DW$152, DW_AT_low_pc(0x00)
	.dwattr $C$DW$152, DW_AT_name("_lcd_puts")
	.dwattr $C$DW$152, DW_AT_TI_call

        LCR       #_lcd_puts            ; [CPU_] |6068| 
        ; call occurs [#_lcd_puts] ; [] |6068| 
	.dwpsn	file "../Source/prod.c",line 6069,column 4,is_stmt,isa 0
;----------------------------------------------------------------------
; 6069 | if (autoid[conf_data.vfd[l].ch]) {                                     
;----------------------------------------------------------------------
        MOVZ      AR0,*+XAR2[1]         ; [CPU_] |6069| 
        MOVL      XAR4,#_autoid         ; [CPU_U] |6069| 
        MOV       AL,*+XAR4[AR0]        ; [CPU_] |6069| 
        B         $C$L3,EQ              ; [CPU_] |6069| 
        ; branchcc occurs ; [] |6069| 
	.dwpsn	file "../Source/prod.c",line 6070,column 5,is_stmt,isa 0
;----------------------------------------------------------------------
; 6070 | lcd_puts("*", 6 + 20 * l);                                             
;----------------------------------------------------------------------
        MOVB      AL,#6                 ; [CPU_] |6070| 
        MOVL      XAR4,#$C$FSL4         ; [CPU_U] |6070| 
        ADD       AL,AR1                ; [CPU_] |6070| 
$C$DW$153	.dwtag  DW_TAG_TI_branch
	.dwattr $C$DW$153, DW_AT_low_pc(0x00)
	.dwattr $C$DW$153, DW_AT_name("_lcd_puts")
	.dwattr $C$DW$153, DW_AT_TI_call

        LCR       #_lcd_puts            ; [CPU_] |6070| 
        ; call occurs [#_lcd_puts] ; [] |6070| 
$C$L3:    
	.dwpsn	file "../Source/prod.c",line 6073,column 4,is_stmt,isa 0
;----------------------------------------------------------------------
; 6073 | if ( VFD_POSI == conf_data.vfd[l].what) {                              
; 6074 |         lcd_puts("IN", 18 + 20 * l);                                   
;----------------------------------------------------------------------
        MOV       AL,*+XAR2[0]          ; [CPU_] |6073| 
        CMPB      AL,#3                 ; [CPU_] |6073| 
        B         $C$L6,EQ              ; [CPU_] |6073| 
        ; branchcc occurs ; [] |6073| 
	.dwpsn	file "../Source/prod.c",line 6075,column 11,is_stmt,isa 0
;----------------------------------------------------------------------
; 6075 | } else if ( VFD_VELO == conf_data.vfd[l].what) {                       
; 6076 |         lcd_puts("IPM", 17 + 20 * l);                                  
; 6077 | } else {                                                               
;----------------------------------------------------------------------
        MOV       AL,*+XAR2[0]          ; [CPU_] |6075| 
        CMPB      AL,#4                 ; [CPU_] |6075| 
        B         $C$L5,EQ              ; [CPU_] |6075| 
        ; branchcc occurs ; [] |6075| 
	.dwpsn	file "../Source/prod.c",line 6078,column 5,is_stmt,isa 0
;----------------------------------------------------------------------
; 6078 | lcd_puts(                                                              
; 6079 |                 (char*) UNITS[0x0f                                     
; 6080 |                                 & conf_data.sensor[conf_data.ch[conf_da
;     | ta.vfd[l].ch].ci].ounit],                                              
; 6081 |                 18 + 20 * l);                                          
; 6083 | break;                                                                 
; 6084 | case VFD_LIMIT:                                                        
; 6085 | sprintf(buff, " %u", conf_data.vfd[l].ch + 1);                         
; 6086 | lcd_puts(buff, 5 + 20 * l);                                            
; 6087 | break;                                                                 
; 6088 | case VFD_TEMP:                                                         
; 6089 | #if(VFD==1)                                                            
; 6090 | buff[0] = 0xb0;                                                        
; 6091 | #else //(VFD=2)                                                        
;----------------------------------------------------------------------
        MOVL      XAR6,*-SP[6]          ; [CPU_] |6078| 
        MOV       T,#10                 ; [CPU_] |6078| 
        MPYXU     ACC,T,*+XAR2[1]       ; [CPU_] |6078| 
        ADDL      ACC,XAR6              ; [CPU_] |6078| 
        MOVL      XAR4,ACC              ; [CPU_] |6078| 
        MOVB      XAR0,#42              ; [CPU_] |6078| 
        MOV       T,*+XAR4[AR0]         ; [CPU_] |6078| 
        MPYB      ACC,T,#152            ; [CPU_] |6078| 
        ADDL      ACC,XAR6              ; [CPU_] |6078| 
        MOVL      XAR4,ACC              ; [CPU_] |6078| 
        MOVB      XAR0,#125             ; [CPU_] |6078| 
        SETC      SXM                   ; [CPU_] 
        MOV       AL,*+XAR4[AR0]        ; [CPU_] |6078| 
        ANDB      AL,#0x0f              ; [CPU_] |6078| 
        MOVL      XAR4,#_UNITS          ; [CPU_U] |6078| 
        MOV       ACC,AL << 1           ; [CPU_] |6078| 
        ADDL      XAR4,ACC              ; [CPU_] |6078| 
        MOVL      XAR4,*+XAR4[0]        ; [CPU_] |6078| 
$C$L4:    
        MOVB      AL,#18                ; [CPU_] |6078| 
        B         $C$L9,UNC             ; [CPU_] |6078| 
        ; branch occurs ; [] |6078| 
$C$L5:    
	.dwpsn	file "../Source/prod.c",line 6076,column 5,is_stmt,isa 0
        MOVB      AL,#17                ; [CPU_] |6076| 
        MOVL      XAR4,#$C$FSL1         ; [CPU_U] |6076| 
	.dwpsn	file "../Source/prod.c",line 6077,column 4,is_stmt,isa 0
        B         $C$L9,UNC             ; [CPU_] |6077| 
        ; branch occurs ; [] |6077| 
$C$L6:    
	.dwpsn	file "../Source/prod.c",line 6074,column 5,is_stmt,isa 0
        MOVL      XAR4,#$C$FSL5         ; [CPU_U] |6074| 
	.dwpsn	file "../Source/prod.c",line 6075,column 4,is_stmt,isa 0
        B         $C$L4,UNC             ; [CPU_] |6075| 
        ; branch occurs ; [] |6075| 
$C$L7:    
	.dwpsn	file "../Source/prod.c",line 6092,column 4,is_stmt,isa 0
;----------------------------------------------------------------------
; 6092 | buff[0] = 0xdf;                                                        
; 6093 | #endif                                                                 
;----------------------------------------------------------------------
        MOVL      XAR4,#_buff$8         ; [CPU_U] |6092| 
        MOVB      *+XAR4[0],#223,UNC    ; [CPU_] |6092| 
	.dwpsn	file "../Source/prod.c",line 6094,column 4,is_stmt,isa 0
;----------------------------------------------------------------------
; 6094 | buff[1] = 'F';                                                         
;----------------------------------------------------------------------
        MOVB      *+XAR4[1],#70,UNC     ; [CPU_] |6094| 
	.dwpsn	file "../Source/prod.c",line 6095,column 4,is_stmt,isa 0
;----------------------------------------------------------------------
; 6095 | buff[2] = '\0';                                                        
; 6096 | lcd_puts(buff, 18 + 20 * l);                                           
;----------------------------------------------------------------------
        MOV       *+XAR4[2],#0          ; [CPU_] |6095| 
	.dwpsn	file "../Source/prod.c",line 6097,column 4,is_stmt,isa 0
;----------------------------------------------------------------------
; 6097 | break;                                                                 
;----------------------------------------------------------------------
        B         $C$L4,UNC             ; [CPU_] |6097| 
        ; branch occurs ; [] |6097| 
$C$L8:    
	.dwpsn	file "../Source/prod.c",line 6085,column 4,is_stmt,isa 0
        MOVL      XAR4,#$C$FSL3         ; [CPU_U] |6085| 
        MOVL      XAR3,#_buff$8         ; [CPU_U] |6085| 
        MOVL      *-SP[2],XAR4          ; [CPU_] |6085| 
        MOV       AL,*+XAR2[1]          ; [CPU_] |6085| 
        ADDB      AL,#1                 ; [CPU_] |6085| 
        MOVL      XAR4,XAR3             ; [CPU_] |6085| 
        MOV       *-SP[3],AL            ; [CPU_] |6085| 
$C$DW$154	.dwtag  DW_TAG_TI_branch
	.dwattr $C$DW$154, DW_AT_low_pc(0x00)
	.dwattr $C$DW$154, DW_AT_name("_sprintf")
	.dwattr $C$DW$154, DW_AT_TI_call

        LCR       #_sprintf             ; [CPU_] |6085| 
        ; call occurs [#_sprintf] ; [] |6085| 
	.dwpsn	file "../Source/prod.c",line 6086,column 4,is_stmt,isa 0
        MOVB      AL,#5                 ; [CPU_] |6086| 
        MOVL      XAR4,XAR3             ; [CPU_] |6086| 
$C$L9:    
        ADD       AL,AR1                ; [CPU_] |6086| 
$C$DW$155	.dwtag  DW_TAG_TI_branch
	.dwattr $C$DW$155, DW_AT_low_pc(0x00)
	.dwattr $C$DW$155, DW_AT_name("_lcd_puts")
	.dwattr $C$DW$155, DW_AT_TI_call

        LCR       #_lcd_puts            ; [CPU_] |6086| 
        ; call occurs [#_lcd_puts] ; [] |6086| 
$C$L10:    
	.dwpsn	file "../Source/prod.c",line 6059,column 14,is_stmt,isa 0
        MOVZ      AR6,*-SP[4]           ; [CPU_] |6059| 
        SUBB      XAR6,#1               ; [CPU_U] |6059| 
        MOVZ      AR0,AR6               ; [CPU_] |6059| 
        ADDB      XAR2,#3               ; [CPU_] |6059| 
        ADDB      XAR1,#20              ; [CPU_] |6059| 
        MOV       *-SP[4],AR6           ; [CPU_] |6059| 
        CMP       AR0,#-1               ; [CPU_] |6059| 
        B         $C$L1,NEQ             ; [CPU_] |6059| 
        ; branchcc occurs ; [] |6059| 
        SUBB      SP,#6                 ; [CPU_U] 
	.dwcfi	cfa_offset, -8
        MOVL      XAR3,*--SP            ; [CPU_] 
	.dwcfi	cfa_offset, -6
	.dwcfi	restore_reg, 11
        MOVL      XAR2,*--SP            ; [CPU_] 
	.dwcfi	cfa_offset, -4
	.dwcfi	restore_reg, 9
        MOVL      XAR1,*--SP            ; [CPU_] 
	.dwcfi	cfa_offset, -2
	.dwcfi	restore_reg, 7
$C$DW$156	.dwtag  DW_TAG_TI_branch
	.dwattr $C$DW$156, DW_AT_low_pc(0x00)
	.dwattr $C$DW$156, DW_AT_TI_return

        LRETR     ; [CPU_] 
        ; return occurs ; [] 
	.dwattr $C$DW$147, DW_AT_TI_end_file("../Source/prod.c")
	.dwattr $C$DW$147, DW_AT_TI_end_line(0x17d4)
	.dwattr $C$DW$147, DW_AT_TI_end_column(0x01)
	.dwendentry
	.dwendtag $C$DW$147

	.sect	".text"
	.clink
	.global	_print_vfd

$C$DW$157	.dwtag  DW_TAG_subprogram
	.dwattr $C$DW$157, DW_AT_name("print_vfd")
	.dwattr $C$DW$157, DW_AT_low_pc(_print_vfd)
	.dwattr $C$DW$157, DW_AT_high_pc(0x00)
	.dwattr $C$DW$157, DW_AT_TI_symbol_name("_print_vfd")
	.dwattr $C$DW$157, DW_AT_external
	.dwattr $C$DW$157, DW_AT_TI_begin_file("../Source/prod.c")
	.dwattr $C$DW$157, DW_AT_TI_begin_line(0x1730)
	.dwattr $C$DW$157, DW_AT_TI_begin_column(0x06)
	.dwattr $C$DW$157, DW_AT_TI_max_frame_size(-14)
	.dwpsn	file "../Source/prod.c",line 5936,column 22,is_stmt,address _print_vfd,isa 0

	.dwfde $C$DW$CIE, _print_vfd
$C$DW$158	.dwtag  DW_TAG_variable
	.dwattr $C$DW$158, DW_AT_name("buff")
	.dwattr $C$DW$158, DW_AT_TI_symbol_name("_buff$5")
	.dwattr $C$DW$158, DW_AT_type(*$C$DW$T$380)
	.dwattr $C$DW$158, DW_AT_location[DW_OP_addr _buff$5]

;----------------------------------------------------------------------
; 5936 | void print_vfd(void) {                                                 
; 5937 | int l;                                                                 
; 5938 | static char buff[64];                                                  
;----------------------------------------------------------------------

;***************************************************************
;* FNAME: _print_vfd                    FR SIZE:  12           *
;*                                                             *
;* FUNCTION ENVIRONMENT                                        *
;*                                                             *
;* FUNCTION PROPERTIES                                         *
;*                            6 Parameter,  0 Auto,  6 SOE     *
;***************************************************************

_print_vfd:
;* AR1   assigned to _l
$C$DW$159	.dwtag  DW_TAG_variable
	.dwattr $C$DW$159, DW_AT_name("l")
	.dwattr $C$DW$159, DW_AT_TI_symbol_name("_l")
	.dwattr $C$DW$159, DW_AT_type(*$C$DW$T$10)
	.dwattr $C$DW$159, DW_AT_location[DW_OP_reg6]

;* AR3   assigned to $O$K21
;* AR2   assigned to $O$U7
	.dwcfi	cfa_offset, -2
	.dwcfi	save_reg_to_mem, 26, 0
        MOVL      *SP++,XAR1            ; [CPU_] 
	.dwcfi	save_reg_to_mem, 7, 2
	.dwcfi	cfa_offset, -4
        MOVL      *SP++,XAR2            ; [CPU_] 
	.dwcfi	save_reg_to_mem, 9, 4
	.dwcfi	cfa_offset, -6
        MOVL      *SP++,XAR3            ; [CPU_] 
	.dwcfi	save_reg_to_mem, 11, 6
	.dwcfi	cfa_offset, -8
        ADDB      SP,#6                 ; [CPU_U] 
	.dwcfi	cfa_offset, -14
	.dwpsn	file "../Source/prod.c",line 5940,column 2,is_stmt,isa 0
;----------------------------------------------------------------------
; 5940 | scia_puts("\r\nDisplay Settings:\r\n");                                
;----------------------------------------------------------------------
        MOVL      XAR4,#$C$FSL6         ; [CPU_U] |5940| 
$C$DW$160	.dwtag  DW_TAG_TI_branch
	.dwattr $C$DW$160, DW_AT_low_pc(0x00)
	.dwattr $C$DW$160, DW_AT_name("_scia_puts")
	.dwattr $C$DW$160, DW_AT_TI_call

        LCR       #_scia_puts           ; [CPU_] |5940| 
        ; call occurs [#_scia_puts] ; [] |5940| 
	.dwpsn	file "../Source/prod.c",line 5941,column 7,is_stmt,isa 0
;----------------------------------------------------------------------
; 5941 | for (l = 0; l < VFD_MAX; l++) {                                        
;----------------------------------------------------------------------
        MOVB      XAR1,#0               ; [CPU_] |5941| 
        MOVL      XAR2,#_conf_data+3122 ; [CPU_U] 
        MOVL      XAR3,#_buff$5         ; [CPU_U] 
$C$L11:    
	.dwpsn	file "../Source/prod.c",line 5942,column 3,is_stmt,isa 0
;----------------------------------------------------------------------
; 5942 | sprintf(buff, "  Line %u: %s", l + 1, LPV[conf_data.vfd[l].what]);     
;----------------------------------------------------------------------
        MOVL      XAR4,#$C$FSL7         ; [CPU_U] |5942| 
        MOVB      AL,#1                 ; [CPU_] |5942| 
        CLRC      SXM                   ; [CPU_] 
        MOVL      *-SP[2],XAR4          ; [CPU_] |5942| 
        ADD       AL,AR1                ; [CPU_] |5942| 
        MOV       *-SP[3],AL            ; [CPU_] |5942| 
        MOVL      XAR4,#_LPV            ; [CPU_U] |5942| 
        MOV       ACC,*+XAR2[0] << 1    ; [CPU_] |5942| 
        ADDL      XAR4,ACC              ; [CPU_] |5942| 
        MOVL      ACC,*+XAR4[0]         ; [CPU_] |5942| 
        MOVL      XAR4,XAR3             ; [CPU_] |5942| 
        MOVL      *-SP[6],ACC           ; [CPU_] |5942| 
$C$DW$161	.dwtag  DW_TAG_TI_branch
	.dwattr $C$DW$161, DW_AT_low_pc(0x00)
	.dwattr $C$DW$161, DW_AT_name("_sprintf")
	.dwattr $C$DW$161, DW_AT_TI_call

        LCR       #_sprintf             ; [CPU_] |5942| 
        ; call occurs [#_sprintf] ; [] |5942| 
	.dwpsn	file "../Source/prod.c",line 5943,column 3,is_stmt,isa 0
;----------------------------------------------------------------------
; 5943 | scia_puts(buff);                                                       
;----------------------------------------------------------------------
        MOVL      XAR4,XAR3             ; [CPU_] |5943| 
$C$DW$162	.dwtag  DW_TAG_TI_branch
	.dwattr $C$DW$162, DW_AT_low_pc(0x00)
	.dwattr $C$DW$162, DW_AT_name("_scia_puts")
	.dwattr $C$DW$162, DW_AT_TI_call

        LCR       #_scia_puts           ; [CPU_] |5943| 
        ; call occurs [#_scia_puts] ; [] |5943| 
	.dwpsn	file "../Source/prod.c",line 5945,column 3,is_stmt,isa 0
;----------------------------------------------------------------------
; 5945 | switch (conf_data.vfd[l].what) {                                       
; 5946 | case VFD_LOAD:                                                         
; 5947 | case VFD_PEAK:                                                         
; 5948 | case VFD_VALL:                                                         
; 5949 | case VFD_POSI:                                                         
; 5950 | case VFD_VELO:                                                         
; 5951 |         sprintf(buff, " channel %u with %u digits after decimal point",
; 5952 |                         conf_data.vfd[l].ch + 1, conf_data.vfd[l].adec)
;     | ;                                                                      
; 5953 |         scia_puts(buff);                                               
; 5954 |         break;                                                         
; 5955 | case VFD_LIMIT:                                                        
; 5956 |         sprintf(buff, " channel %u", conf_data.vfd[l].ch + 1);         
; 5957 |         scia_puts(buff);                                               
; 5958 |         break;                                                         
; 5959 | case VFD_TEMP:                                                         
;----------------------------------------------------------------------
        MOV       AL,*+XAR2[0]          ; [CPU_] |5945| 
        CMPB      AL,#4                 ; [CPU_] |5945| 
        B         $C$L13,LOS            ; [CPU_] |5945| 
        ; branchcc occurs ; [] |5945| 
        CMPB      AL,#5                 ; [CPU_] |5945| 
        B         $C$L12,EQ             ; [CPU_] |5945| 
        ; branchcc occurs ; [] |5945| 
        CMPB      AL,#6                 ; [CPU_] |5945| 
        B         $C$L16,NEQ            ; [CPU_] |5945| 
        ; branchcc occurs ; [] |5945| 
	.dwpsn	file "../Source/prod.c",line 5960,column 4,is_stmt,isa 0
;----------------------------------------------------------------------
; 5960 | scia_puts(" Board temperature");                                       
;----------------------------------------------------------------------
        MOVL      XAR4,#$C$FSL8         ; [CPU_U] |5960| 
	.dwpsn	file "../Source/prod.c",line 5961,column 4,is_stmt,isa 0
;----------------------------------------------------------------------
; 5961 | break;                                                                 
;----------------------------------------------------------------------
        B         $C$L15,UNC            ; [CPU_] |5961| 
        ; branch occurs ; [] |5961| 
$C$L12:    
	.dwpsn	file "../Source/prod.c",line 5956,column 4,is_stmt,isa 0
        MOVL      XAR4,#$C$FSL9         ; [CPU_U] |5956| 
        MOVL      *-SP[2],XAR4          ; [CPU_] |5956| 
        MOV       AL,*+XAR2[1]          ; [CPU_] |5956| 
        ADDB      AL,#1                 ; [CPU_] |5956| 
        MOV       *-SP[3],AL            ; [CPU_] |5956| 
	.dwpsn	file "../Source/prod.c",line 5958,column 4,is_stmt,isa 0
        B         $C$L14,UNC            ; [CPU_] |5958| 
        ; branch occurs ; [] |5958| 
$C$L13:    
	.dwpsn	file "../Source/prod.c",line 5951,column 4,is_stmt,isa 0
        MOVL      XAR4,#$C$FSL10        ; [CPU_U] |5951| 
        MOVL      *-SP[2],XAR4          ; [CPU_] |5951| 
        MOV       AL,*+XAR2[1]          ; [CPU_] |5951| 
        ADDB      AL,#1                 ; [CPU_] |5951| 
        MOV       *-SP[3],AL            ; [CPU_] |5951| 
        MOV       AL,*+XAR2[2]          ; [CPU_] |5951| 
        MOV       *-SP[4],AL            ; [CPU_] |5951| 
$C$L14:    
        MOVL      XAR4,XAR3             ; [CPU_] |5951| 
$C$DW$163	.dwtag  DW_TAG_TI_branch
	.dwattr $C$DW$163, DW_AT_low_pc(0x00)
	.dwattr $C$DW$163, DW_AT_name("_sprintf")
	.dwattr $C$DW$163, DW_AT_TI_call

        LCR       #_sprintf             ; [CPU_] |5951| 
        ; call occurs [#_sprintf] ; [] |5951| 
	.dwpsn	file "../Source/prod.c",line 5953,column 4,is_stmt,isa 0
        MOVL      XAR4,XAR3             ; [CPU_] |5953| 
$C$L15:    
$C$DW$164	.dwtag  DW_TAG_TI_branch
	.dwattr $C$DW$164, DW_AT_low_pc(0x00)
	.dwattr $C$DW$164, DW_AT_name("_scia_puts")
	.dwattr $C$DW$164, DW_AT_TI_call

        LCR       #_scia_puts           ; [CPU_] |5953| 
        ; call occurs [#_scia_puts] ; [] |5953| 
$C$L16:    
	.dwpsn	file "../Source/prod.c",line 5963,column 3,is_stmt,isa 0
;----------------------------------------------------------------------
; 5963 | scia_puts("\r\n");                                                     
;----------------------------------------------------------------------
        MOVL      XAR4,#$C$FSL11        ; [CPU_U] |5963| 
$C$DW$165	.dwtag  DW_TAG_TI_branch
	.dwattr $C$DW$165, DW_AT_low_pc(0x00)
	.dwattr $C$DW$165, DW_AT_name("_scia_puts")
	.dwattr $C$DW$165, DW_AT_TI_call

        LCR       #_scia_puts           ; [CPU_] |5963| 
        ; call occurs [#_scia_puts] ; [] |5963| 
	.dwpsn	file "../Source/prod.c",line 5941,column 14,is_stmt,isa 0
        ADDB      XAR1,#1               ; [CPU_] |5941| 
        ADDB      XAR2,#3               ; [CPU_] |5941| 
        MOV       AL,AR1                ; [CPU_] |5941| 
        CMPB      AL,#4                 ; [CPU_] |5941| 
        B         $C$L11,LT             ; [CPU_] |5941| 
        ; branchcc occurs ; [] |5941| 
        SUBB      SP,#6                 ; [CPU_U] 
	.dwcfi	cfa_offset, -8
        MOVL      XAR3,*--SP            ; [CPU_] 
	.dwcfi	cfa_offset, -6
	.dwcfi	restore_reg, 11
        MOVL      XAR2,*--SP            ; [CPU_] 
	.dwcfi	cfa_offset, -4
	.dwcfi	restore_reg, 9
        MOVL      XAR1,*--SP            ; [CPU_] 
	.dwcfi	cfa_offset, -2
	.dwcfi	restore_reg, 7
$C$DW$166	.dwtag  DW_TAG_TI_branch
	.dwattr $C$DW$166, DW_AT_low_pc(0x00)
	.dwattr $C$DW$166, DW_AT_TI_return

        LRETR     ; [CPU_] 
        ; return occurs ; [] 
	.dwattr $C$DW$157, DW_AT_TI_end_file("../Source/prod.c")
	.dwattr $C$DW$157, DW_AT_TI_end_line(0x174d)
	.dwattr $C$DW$157, DW_AT_TI_end_column(0x01)
	.dwendentry
	.dwendtag $C$DW$157

	.sect	".text"
	.clink
	.global	_print_sensor

$C$DW$167	.dwtag  DW_TAG_subprogram
	.dwattr $C$DW$167, DW_AT_name("print_sensor")
	.dwattr $C$DW$167, DW_AT_low_pc(_print_sensor)
	.dwattr $C$DW$167, DW_AT_high_pc(0x00)
	.dwattr $C$DW$167, DW_AT_TI_symbol_name("_print_sensor")
	.dwattr $C$DW$167, DW_AT_external
	.dwattr $C$DW$167, DW_AT_TI_begin_file("../Source/prod.c")
	.dwattr $C$DW$167, DW_AT_TI_begin_line(0x16d9)
	.dwattr $C$DW$167, DW_AT_TI_begin_column(0x06)
	.dwattr $C$DW$167, DW_AT_TI_max_frame_size(-20)
	.dwpsn	file "../Source/prod.c",line 5849,column 27,is_stmt,address _print_sensor,isa 0

	.dwfde $C$DW$CIE, _print_sensor
$C$DW$168	.dwtag  DW_TAG_variable
	.dwattr $C$DW$168, DW_AT_name("buff")
	.dwattr $C$DW$168, DW_AT_TI_symbol_name("_buff$4")
	.dwattr $C$DW$168, DW_AT_type(*$C$DW$T$379)
	.dwattr $C$DW$168, DW_AT_location[DW_OP_addr _buff$4]

$C$DW$169	.dwtag  DW_TAG_formal_parameter
	.dwattr $C$DW$169, DW_AT_name("ss")
	.dwattr $C$DW$169, DW_AT_TI_symbol_name("_ss")
	.dwattr $C$DW$169, DW_AT_type(*$C$DW$T$10)
	.dwattr $C$DW$169, DW_AT_location[DW_OP_reg0]


;***************************************************************
;* FNAME: _print_sensor                 FR SIZE:  18           *
;*                                                             *
;* FUNCTION ENVIRONMENT                                        *
;*                                                             *
;* FUNCTION PROPERTIES                                         *
;*                            6 Parameter,  6 Auto,  6 SOE     *
;***************************************************************

_print_sensor:
;* AR2   assigned to $O$C3
;* AR2   assigned to $O$K5
;* AR1   assigned to $O$K15
;* AR3   assigned to $O$K4
;* T     assigned to _ss
$C$DW$170	.dwtag  DW_TAG_variable
	.dwattr $C$DW$170, DW_AT_name("ss")
	.dwattr $C$DW$170, DW_AT_TI_symbol_name("_ss")
	.dwattr $C$DW$170, DW_AT_type(*$C$DW$T$195)
	.dwattr $C$DW$170, DW_AT_location[DW_OP_reg22]

;* AL    assigned to _j
$C$DW$171	.dwtag  DW_TAG_variable
	.dwattr $C$DW$171, DW_AT_name("j")
	.dwattr $C$DW$171, DW_AT_TI_symbol_name("_j")
	.dwattr $C$DW$171, DW_AT_type(*$C$DW$T$10)
	.dwattr $C$DW$171, DW_AT_location[DW_OP_reg0]

$C$DW$172	.dwtag  DW_TAG_variable
	.dwattr $C$DW$172, DW_AT_name("j")
	.dwattr $C$DW$172, DW_AT_TI_symbol_name("_j")
	.dwattr $C$DW$172, DW_AT_type(*$C$DW$T$10)
	.dwattr $C$DW$172, DW_AT_location[DW_OP_breg20 -7]

$C$DW$173	.dwtag  DW_TAG_variable
	.dwattr $C$DW$173, DW_AT_name("j")
	.dwattr $C$DW$173, DW_AT_TI_symbol_name("_j")
	.dwattr $C$DW$173, DW_AT_type(*$C$DW$T$10)
	.dwattr $C$DW$173, DW_AT_location[DW_OP_breg20 -7]

$C$DW$174	.dwtag  DW_TAG_variable
	.dwattr $C$DW$174, DW_AT_name("j")
	.dwattr $C$DW$174, DW_AT_TI_symbol_name("_j")
	.dwattr $C$DW$174, DW_AT_type(*$C$DW$T$10)
	.dwattr $C$DW$174, DW_AT_location[DW_OP_breg20 -7]

$C$DW$175	.dwtag  DW_TAG_variable
	.dwattr $C$DW$175, DW_AT_name("j")
	.dwattr $C$DW$175, DW_AT_TI_symbol_name("_j")
	.dwattr $C$DW$175, DW_AT_type(*$C$DW$T$10)
	.dwattr $C$DW$175, DW_AT_location[DW_OP_breg20 -7]

	.dwcfi	cfa_offset, -2
	.dwcfi	save_reg_to_mem, 26, 0
        MOVL      *SP++,XAR1            ; [CPU_] 
	.dwcfi	save_reg_to_mem, 7, 2
	.dwcfi	cfa_offset, -4
        MOVL      *SP++,XAR2            ; [CPU_] 
	.dwcfi	save_reg_to_mem, 9, 4
	.dwcfi	cfa_offset, -6
        MOVL      *SP++,XAR3            ; [CPU_] 
	.dwcfi	save_reg_to_mem, 11, 6
	.dwcfi	cfa_offset, -8
        ADDB      SP,#12                ; [CPU_U] 
	.dwcfi	cfa_offset, -20
;----------------------------------------------------------------------
; 5849 | void print_sensor(int ss) {                                            
; 5850 | int j;                                                                 
; 5851 | static char buff[100];                                                 
; 5853 | ////                                                                   
;----------------------------------------------------------------------
        MOV       T,AL                  ; [CPU_] |5849| 
	.dwpsn	file "../Source/prod.c",line 5854,column 2,is_stmt,isa 0
;----------------------------------------------------------------------
; 5854 | if (conf_data.sensor[ss].method == MD_UNCALED) {                       
; 5855 |         scia_puts("  Sensor has not been calibrated.\r\n");            
; 5856 | } else {                                                               
;----------------------------------------------------------------------
        MOVL      XAR3,#_conf_data      ; [CPU_U] |5854| 
        MPYB      P,T,#152              ; [CPU_] |5854| 
        MOVL      ACC,XAR3              ; [CPU_] |5854| 
        ADDL      ACC,P                 ; [CPU_] |5854| 
        MOVL      XAR2,ACC              ; [CPU_] |5854| 
        MOVB      XAR0,#118             ; [CPU_] |5854| 
        MOVL      *-SP[12],P            ; [CPU_] |5854| 
        MOV       AL,*+XAR2[AR0]        ; [CPU_] |5854| 
        B         $C$L28,EQ             ; [CPU_] |5854| 
        ; branchcc occurs ; [] |5854| 
	.dwpsn	file "../Source/prod.c",line 5857,column 3,is_stmt,isa 0
;----------------------------------------------------------------------
; 5857 | sprintf(buff, "  Serial number:    %s\r\n", conf_data.sensor[ss].ssn); 
;----------------------------------------------------------------------
        MOVL      XAR4,#$C$FSL12        ; [CPU_U] |5857| 
        MOVL      ACC,XAR2              ; [CPU_] |5857| 
        MOVL      XAR1,#_buff$4         ; [CPU_U] |5857| 
        MOVL      *-SP[2],XAR4          ; [CPU_] |5857| 
        ADDB      ACC,#82               ; [CPU_] |5857| 
        MOVL      XAR4,XAR1             ; [CPU_] |5857| 
        MOVL      *-SP[4],ACC           ; [CPU_] |5857| 
$C$DW$176	.dwtag  DW_TAG_TI_branch
	.dwattr $C$DW$176, DW_AT_low_pc(0x00)
	.dwattr $C$DW$176, DW_AT_name("_sprintf")
	.dwattr $C$DW$176, DW_AT_TI_call

        LCR       #_sprintf             ; [CPU_] |5857| 
        ; call occurs [#_sprintf] ; [] |5857| 
	.dwpsn	file "../Source/prod.c",line 5858,column 3,is_stmt,isa 0
;----------------------------------------------------------------------
; 5858 | scia_puts(buff);                                                       
;----------------------------------------------------------------------
        MOVL      XAR4,XAR1             ; [CPU_] |5858| 
$C$DW$177	.dwtag  DW_TAG_TI_branch
	.dwattr $C$DW$177, DW_AT_low_pc(0x00)
	.dwattr $C$DW$177, DW_AT_name("_scia_puts")
	.dwattr $C$DW$177, DW_AT_TI_call

        LCR       #_scia_puts           ; [CPU_] |5858| 
        ; call occurs [#_scia_puts] ; [] |5858| 
	.dwpsn	file "../Source/prod.c",line 5859,column 3,is_stmt,isa 0
;----------------------------------------------------------------------
; 5859 | sprintf(buff, "  Sensor name/label:%s\r\n", conf_data.sensor[ss].slbl);
;----------------------------------------------------------------------
        MOVL      XAR4,#$C$FSL13        ; [CPU_U] |5859| 
        MOVL      ACC,XAR2              ; [CPU_] |5859| 
        MOVL      *-SP[2],XAR4          ; [CPU_] |5859| 
        ADDB      ACC,#98               ; [CPU_] |5859| 
        MOVL      XAR4,XAR1             ; [CPU_] |5859| 
        MOVL      *-SP[4],ACC           ; [CPU_] |5859| 
$C$DW$178	.dwtag  DW_TAG_TI_branch
	.dwattr $C$DW$178, DW_AT_low_pc(0x00)
	.dwattr $C$DW$178, DW_AT_name("_sprintf")
	.dwattr $C$DW$178, DW_AT_TI_call

        LCR       #_sprintf             ; [CPU_] |5859| 
        ; call occurs [#_sprintf] ; [] |5859| 
	.dwpsn	file "../Source/prod.c",line 5860,column 3,is_stmt,isa 0
;----------------------------------------------------------------------
; 5860 | scia_puts(buff);                                                       
;----------------------------------------------------------------------
        MOVL      XAR4,XAR1             ; [CPU_] |5860| 
$C$DW$179	.dwtag  DW_TAG_TI_branch
	.dwattr $C$DW$179, DW_AT_low_pc(0x00)
	.dwattr $C$DW$179, DW_AT_name("_scia_puts")
	.dwattr $C$DW$179, DW_AT_TI_call

        LCR       #_scia_puts           ; [CPU_] |5860| 
        ; call occurs [#_scia_puts] ; [] |5860| 
	.dwpsn	file "../Source/prod.c",line 5861,column 3,is_stmt,isa 0
;----------------------------------------------------------------------
; 5861 | sprintf(buff, "  Sensor TAGID:     %016llX\r\n",                       
; 5862 |                 conf_data.sensor[ss].tagid);                           
;----------------------------------------------------------------------
        MOVL      XAR4,#$C$FSL14        ; [CPU_U] |5861| 
        MOVL      *-SP[2],XAR4          ; [CPU_] |5861| 
        MOVL      XAR4,XAR2             ; [CPU_] |5861| 
        ADDB      XAR4,#114             ; [CPU_] |5861| 
        MOVL      ACC,*+XAR4[0]         ; [CPU_] |5861| 
        MOVL      XAR6,*+XAR4[2]        ; [CPU_] |5861| 
        MOVL      *-SP[6],ACC           ; [CPU_] |5861| 
        MOVL      XAR4,XAR1             ; [CPU_] |5861| 
        MOVL      *-SP[4],XAR6          ; [CPU_] |5861| 
$C$DW$180	.dwtag  DW_TAG_TI_branch
	.dwattr $C$DW$180, DW_AT_low_pc(0x00)
	.dwattr $C$DW$180, DW_AT_name("_sprintf")
	.dwattr $C$DW$180, DW_AT_TI_call

        LCR       #_sprintf             ; [CPU_] |5861| 
        ; call occurs [#_sprintf] ; [] |5861| 
	.dwpsn	file "../Source/prod.c",line 5863,column 3,is_stmt,isa 0
;----------------------------------------------------------------------
; 5863 | scia_puts(buff);                                                       
;----------------------------------------------------------------------
        MOVL      XAR4,XAR1             ; [CPU_] |5863| 
$C$DW$181	.dwtag  DW_TAG_TI_branch
	.dwattr $C$DW$181, DW_AT_low_pc(0x00)
	.dwattr $C$DW$181, DW_AT_name("_scia_puts")
	.dwattr $C$DW$181, DW_AT_TI_call

        LCR       #_scia_puts           ; [CPU_] |5863| 
        ; call occurs [#_scia_puts] ; [] |5863| 
	.dwpsn	file "../Source/prod.c",line 5864,column 3,is_stmt,isa 0
;----------------------------------------------------------------------
; 5864 | sprintf(buff, "  Cal method:       %s\r\n",                            
; 5865 |                 METHOD[conf_data.sensor[ss].method]);                  
;----------------------------------------------------------------------
        MOVL      XAR4,#$C$FSL15        ; [CPU_U] |5864| 
        MOVB      XAR0,#118             ; [CPU_] |5864| 
        SETC      SXM                   ; [CPU_] 
        MOVL      *-SP[2],XAR4          ; [CPU_] |5864| 
        MOVL      XAR4,#_METHOD         ; [CPU_U] |5864| 
        MOV       ACC,*+XAR2[AR0] << 1  ; [CPU_] |5864| 
        ADDL      XAR4,ACC              ; [CPU_] |5864| 
        MOVL      ACC,*+XAR4[0]         ; [CPU_] |5864| 
        MOVL      *-SP[4],ACC           ; [CPU_] |5864| 
        MOVL      XAR4,XAR1             ; [CPU_] |5864| 
$C$DW$182	.dwtag  DW_TAG_TI_branch
	.dwattr $C$DW$182, DW_AT_low_pc(0x00)
	.dwattr $C$DW$182, DW_AT_name("_sprintf")
	.dwattr $C$DW$182, DW_AT_TI_call

        LCR       #_sprintf             ; [CPU_] |5864| 
        ; call occurs [#_sprintf] ; [] |5864| 
	.dwpsn	file "../Source/prod.c",line 5866,column 3,is_stmt,isa 0
;----------------------------------------------------------------------
; 5866 | scia_puts(buff);                                                       
;----------------------------------------------------------------------
        MOVL      XAR4,XAR1             ; [CPU_] |5866| 
$C$DW$183	.dwtag  DW_TAG_TI_branch
	.dwattr $C$DW$183, DW_AT_low_pc(0x00)
	.dwattr $C$DW$183, DW_AT_name("_scia_puts")
	.dwattr $C$DW$183, DW_AT_TI_call

        LCR       #_scia_puts           ; [CPU_] |5866| 
        ; call occurs [#_scia_puts] ; [] |5866| 
	.dwpsn	file "../Source/prod.c",line 5867,column 3,is_stmt,isa 0
;----------------------------------------------------------------------
; 5867 | sprintf(buff, "  Calibrated unit:  %s        ",                        
; 5868 |                 UNITS[0x0f & conf_data.sensor[ss].unit]);              
;----------------------------------------------------------------------
        MOVL      XAR4,#$C$FSL16        ; [CPU_U] |5867| 
        MOVB      XAR0,#124             ; [CPU_] |5867| 
        MOVL      *-SP[2],XAR4          ; [CPU_] |5867| 
        SETC      SXM                   ; [CPU_] 
        MOVL      XAR4,#_UNITS          ; [CPU_U] |5867| 
        MOVL      *-SP[10],XAR4         ; [CPU_] |5867| 
        MOV       AL,*+XAR2[AR0]        ; [CPU_] |5867| 
        ANDB      AL,#0x0f              ; [CPU_] |5867| 
        MOV       ACC,AL << 1           ; [CPU_] |5867| 
        ADDL      XAR4,ACC              ; [CPU_] |5867| 
        MOVL      ACC,*+XAR4[0]         ; [CPU_] |5867| 
        MOVL      XAR4,XAR1             ; [CPU_] |5867| 
        MOVL      *-SP[4],ACC           ; [CPU_] |5867| 
$C$DW$184	.dwtag  DW_TAG_TI_branch
	.dwattr $C$DW$184, DW_AT_low_pc(0x00)
	.dwattr $C$DW$184, DW_AT_name("_sprintf")
	.dwattr $C$DW$184, DW_AT_TI_call

        LCR       #_sprintf             ; [CPU_] |5867| 
        ; call occurs [#_sprintf] ; [] |5867| 
	.dwpsn	file "../Source/prod.c",line 5869,column 3,is_stmt,isa 0
;----------------------------------------------------------------------
; 5869 | scia_puts(buff);                                                       
;----------------------------------------------------------------------
        MOVL      XAR4,XAR1             ; [CPU_] |5869| 
$C$DW$185	.dwtag  DW_TAG_TI_branch
	.dwattr $C$DW$185, DW_AT_low_pc(0x00)
	.dwattr $C$DW$185, DW_AT_name("_scia_puts")
	.dwattr $C$DW$185, DW_AT_TI_call

        LCR       #_scia_puts           ; [CPU_] |5869| 
        ; call occurs [#_scia_puts] ; [] |5869| 
	.dwpsn	file "../Source/prod.c",line 5870,column 3,is_stmt,isa 0
;----------------------------------------------------------------------
; 5870 | sprintf(buff, "  Output unit:      %s\r\n",                            
; 5871 |                 UNITS[0x0f & conf_data.sensor[ss].ounit]);             
;----------------------------------------------------------------------
        MOVB      XAR0,#125             ; [CPU_] |5870| 
        MOVL      XAR4,#$C$FSL17        ; [CPU_U] |5870| 
        MOVL      *-SP[2],XAR4          ; [CPU_] |5870| 
        MOV       AL,*+XAR2[AR0]        ; [CPU_] |5870| 
        MOVL      XAR6,*-SP[10]         ; [CPU_] |5870| 
        SETC      SXM                   ; [CPU_] 
        ANDB      AL,#0x0f              ; [CPU_] |5870| 
        MOV       ACC,AL << 1           ; [CPU_] |5870| 
        ADDL      ACC,XAR6              ; [CPU_] |5870| 
        MOVL      XAR4,ACC              ; [CPU_] |5870| 
        MOVL      ACC,*+XAR4[0]         ; [CPU_] |5870| 
        MOVL      XAR4,XAR1             ; [CPU_] |5870| 
        MOVL      *-SP[4],ACC           ; [CPU_] |5870| 
$C$DW$186	.dwtag  DW_TAG_TI_branch
	.dwattr $C$DW$186, DW_AT_low_pc(0x00)
	.dwattr $C$DW$186, DW_AT_name("_sprintf")
	.dwattr $C$DW$186, DW_AT_TI_call

        LCR       #_sprintf             ; [CPU_] |5870| 
        ; call occurs [#_sprintf] ; [] |5870| 
	.dwpsn	file "../Source/prod.c",line 5872,column 3,is_stmt,isa 0
;----------------------------------------------------------------------
; 5872 | scia_puts(buff);                                                       
;----------------------------------------------------------------------
        MOVL      XAR4,XAR1             ; [CPU_] |5872| 
$C$DW$187	.dwtag  DW_TAG_TI_branch
	.dwattr $C$DW$187, DW_AT_low_pc(0x00)
	.dwattr $C$DW$187, DW_AT_name("_scia_puts")
	.dwattr $C$DW$187, DW_AT_TI_call

        LCR       #_scia_puts           ; [CPU_] |5872| 
        ; call occurs [#_scia_puts] ; [] |5872| 
	.dwpsn	file "../Source/prod.c",line 5873,column 3,is_stmt,isa 0
;----------------------------------------------------------------------
; 5873 | sprintf(buff, "  Unit scale:       %-10.5f",                           
; 5874 |                 conf_data.sensor[ss].ufactor);                         
;----------------------------------------------------------------------
        MOVL      XAR4,#$C$FSL18        ; [CPU_U] |5873| 
        MOVB      XAR0,#126             ; [CPU_] |5873| 
        MOVL      *-SP[2],XAR4          ; [CPU_] |5873| 
        MOVL      XAR4,XAR1             ; [CPU_] |5873| 
        MOVL      ACC,*+XAR2[AR0]       ; [CPU_] |5873| 
        MOVL      *-SP[4],ACC           ; [CPU_] |5873| 
$C$DW$188	.dwtag  DW_TAG_TI_branch
	.dwattr $C$DW$188, DW_AT_low_pc(0x00)
	.dwattr $C$DW$188, DW_AT_name("_sprintf")
	.dwattr $C$DW$188, DW_AT_TI_call

        LCR       #_sprintf             ; [CPU_] |5873| 
        ; call occurs [#_sprintf] ; [] |5873| 
	.dwpsn	file "../Source/prod.c",line 5875,column 3,is_stmt,isa 0
;----------------------------------------------------------------------
; 5875 | scia_puts(buff);                                                       
;----------------------------------------------------------------------
        MOVL      XAR4,XAR1             ; [CPU_] |5875| 
$C$DW$189	.dwtag  DW_TAG_TI_branch
	.dwattr $C$DW$189, DW_AT_low_pc(0x00)
	.dwattr $C$DW$189, DW_AT_name("_scia_puts")
	.dwattr $C$DW$189, DW_AT_TI_call

        LCR       #_scia_puts           ; [CPU_] |5875| 
        ; call occurs [#_scia_puts] ; [] |5875| 
	.dwpsn	file "../Source/prod.c",line 5876,column 3,is_stmt,isa 0
;----------------------------------------------------------------------
; 5876 | sprintf(buff, "  Range:            %-10.5f\r\n",                       
; 5877 |                 conf_data.sensor[ss].range);                           
;----------------------------------------------------------------------
        MOVL      XAR4,#$C$FSL19        ; [CPU_U] |5876| 
        MOVB      XAR0,#122             ; [CPU_] |5876| 
        MOVL      *-SP[2],XAR4          ; [CPU_] |5876| 
        MOVL      XAR4,XAR1             ; [CPU_] |5876| 
        MOVL      ACC,*+XAR2[AR0]       ; [CPU_] |5876| 
        MOVL      *-SP[4],ACC           ; [CPU_] |5876| 
$C$DW$190	.dwtag  DW_TAG_TI_branch
	.dwattr $C$DW$190, DW_AT_low_pc(0x00)
	.dwattr $C$DW$190, DW_AT_name("_sprintf")
	.dwattr $C$DW$190, DW_AT_TI_call

        LCR       #_sprintf             ; [CPU_] |5876| 
        ; call occurs [#_sprintf] ; [] |5876| 
	.dwpsn	file "../Source/prod.c",line 5878,column 3,is_stmt,isa 0
;----------------------------------------------------------------------
; 5878 | scia_puts(buff);                                                       
;----------------------------------------------------------------------
        MOVL      XAR4,XAR1             ; [CPU_] |5878| 
$C$DW$191	.dwtag  DW_TAG_TI_branch
	.dwattr $C$DW$191, DW_AT_low_pc(0x00)
	.dwattr $C$DW$191, DW_AT_name("_scia_puts")
	.dwattr $C$DW$191, DW_AT_TI_call

        LCR       #_scia_puts           ; [CPU_] |5878| 
        ; call occurs [#_scia_puts] ; [] |5878| 
	.dwpsn	file "../Source/prod.c",line 5879,column 3,is_stmt,isa 0
;----------------------------------------------------------------------
; 5879 | sprintf(buff, "  Shunt:            %-10.5f",                           
; 5880 |                 conf_data.sensor[ss].shunt);                           
;----------------------------------------------------------------------
        MOVL      XAR4,#$C$FSL20        ; [CPU_U] |5879| 
        MOVB      XAR0,#222             ; [CPU_] |5879| 
        MOVL      *-SP[2],XAR4          ; [CPU_] |5879| 
        MOVL      ACC,*+XAR2[AR0]       ; [CPU_] |5879| 
        MOVL      XAR4,XAR1             ; [CPU_] |5879| 
        MOVL      *-SP[4],ACC           ; [CPU_] |5879| 
$C$DW$192	.dwtag  DW_TAG_TI_branch
	.dwattr $C$DW$192, DW_AT_low_pc(0x00)
	.dwattr $C$DW$192, DW_AT_name("_sprintf")
	.dwattr $C$DW$192, DW_AT_TI_call

        LCR       #_sprintf             ; [CPU_] |5879| 
        ; call occurs [#_sprintf] ; [] |5879| 
	.dwpsn	file "../Source/prod.c",line 5881,column 3,is_stmt,isa 0
;----------------------------------------------------------------------
; 5881 | scia_puts(buff);                                                       
;----------------------------------------------------------------------
        MOVL      XAR4,XAR1             ; [CPU_] |5881| 
$C$DW$193	.dwtag  DW_TAG_TI_branch
	.dwattr $C$DW$193, DW_AT_low_pc(0x00)
	.dwattr $C$DW$193, DW_AT_name("_scia_puts")
	.dwattr $C$DW$193, DW_AT_TI_call

        LCR       #_scia_puts           ; [CPU_] |5881| 
        ; call occurs [#_scia_puts] ; [] |5881| 
	.dwpsn	file "../Source/prod.c",line 5882,column 3,is_stmt,isa 0
;----------------------------------------------------------------------
; 5882 | sprintf(buff, "  Percent base:     %-10.5f\r\n",                       
; 5883 |                 conf_data.sensor[ss].base);                            
;----------------------------------------------------------------------
        MOVL      XAR4,#$C$FSL21        ; [CPU_U] |5882| 
        MOVB      XAR0,#224             ; [CPU_] |5882| 
        MOVL      *-SP[2],XAR4          ; [CPU_] |5882| 
        MOVL      XAR4,XAR1             ; [CPU_] |5882| 
        MOVL      ACC,*+XAR2[AR0]       ; [CPU_] |5882| 
        MOVL      *-SP[4],ACC           ; [CPU_] |5882| 
$C$DW$194	.dwtag  DW_TAG_TI_branch
	.dwattr $C$DW$194, DW_AT_low_pc(0x00)
	.dwattr $C$DW$194, DW_AT_name("_sprintf")
	.dwattr $C$DW$194, DW_AT_TI_call

        LCR       #_sprintf             ; [CPU_] |5882| 
        ; call occurs [#_sprintf] ; [] |5882| 
	.dwpsn	file "../Source/prod.c",line 5884,column 3,is_stmt,isa 0
;----------------------------------------------------------------------
; 5884 | scia_puts(buff);                                                       
;----------------------------------------------------------------------
        MOVL      XAR4,XAR1             ; [CPU_] |5884| 
$C$DW$195	.dwtag  DW_TAG_TI_branch
	.dwattr $C$DW$195, DW_AT_low_pc(0x00)
	.dwattr $C$DW$195, DW_AT_name("_scia_puts")
	.dwattr $C$DW$195, DW_AT_TI_call

        LCR       #_scia_puts           ; [CPU_] |5884| 
        ; call occurs [#_scia_puts] ; [] |5884| 
	.dwpsn	file "../Source/prod.c",line 5885,column 3,is_stmt,isa 0
;----------------------------------------------------------------------
; 5885 | sprintf(buff, "  DAC gain:         %-10.5f",                           
; 5886 |                 conf_data.sensor[ss].dacgain);                         
;----------------------------------------------------------------------
        MOVL      XAR4,#$C$FSL22        ; [CPU_U] |5885| 
        MOVB      XAR0,#228             ; [CPU_] |5885| 
        MOVL      *-SP[2],XAR4          ; [CPU_] |5885| 
        MOVL      XAR4,XAR1             ; [CPU_] |5885| 
        MOVL      ACC,*+XAR2[AR0]       ; [CPU_] |5885| 
        MOVL      *-SP[4],ACC           ; [CPU_] |5885| 
$C$DW$196	.dwtag  DW_TAG_TI_branch
	.dwattr $C$DW$196, DW_AT_low_pc(0x00)
	.dwattr $C$DW$196, DW_AT_name("_sprintf")
	.dwattr $C$DW$196, DW_AT_TI_call

        LCR       #_sprintf             ; [CPU_] |5885| 
        ; call occurs [#_sprintf] ; [] |5885| 
	.dwpsn	file "../Source/prod.c",line 5887,column 3,is_stmt,isa 0
;----------------------------------------------------------------------
; 5887 | scia_puts(buff);                                                       
;----------------------------------------------------------------------
        MOVL      XAR4,XAR1             ; [CPU_] |5887| 
$C$DW$197	.dwtag  DW_TAG_TI_branch
	.dwattr $C$DW$197, DW_AT_low_pc(0x00)
	.dwattr $C$DW$197, DW_AT_name("_scia_puts")
	.dwattr $C$DW$197, DW_AT_TI_call

        LCR       #_scia_puts           ; [CPU_] |5887| 
        ; call occurs [#_scia_puts] ; [] |5887| 
	.dwpsn	file "../Source/prod.c",line 5888,column 3,is_stmt,isa 0
;----------------------------------------------------------------------
; 5888 | sprintf(buff, "  DAC offset:       %-10.5f\r\n",                       
; 5889 |                 conf_data.sensor[ss].dacoff);                          
;----------------------------------------------------------------------
        MOVL      XAR4,#$C$FSL23        ; [CPU_U] |5888| 
        MOVB      XAR0,#230             ; [CPU_] |5888| 
        MOVL      *-SP[2],XAR4          ; [CPU_] |5888| 
        MOVL      XAR4,XAR1             ; [CPU_] |5888| 
        MOVL      ACC,*+XAR2[AR0]       ; [CPU_] |5888| 
        MOVL      *-SP[4],ACC           ; [CPU_] |5888| 
$C$DW$198	.dwtag  DW_TAG_TI_branch
	.dwattr $C$DW$198, DW_AT_low_pc(0x00)
	.dwattr $C$DW$198, DW_AT_name("_sprintf")
	.dwattr $C$DW$198, DW_AT_TI_call

        LCR       #_sprintf             ; [CPU_] |5888| 
        ; call occurs [#_sprintf] ; [] |5888| 
	.dwpsn	file "../Source/prod.c",line 5890,column 3,is_stmt,isa 0
;----------------------------------------------------------------------
; 5890 | scia_puts(buff);                                                       
;----------------------------------------------------------------------
        MOVL      XAR4,XAR1             ; [CPU_] |5890| 
$C$DW$199	.dwtag  DW_TAG_TI_branch
	.dwattr $C$DW$199, DW_AT_low_pc(0x00)
	.dwattr $C$DW$199, DW_AT_name("_scia_puts")
	.dwattr $C$DW$199, DW_AT_TI_call

        LCR       #_scia_puts           ; [CPU_] |5890| 
        ; call occurs [#_scia_puts] ; [] |5890| 
	.dwpsn	file "../Source/prod.c",line 5892,column 3,is_stmt,isa 0
;----------------------------------------------------------------------
; 5892 | if ( MD_RUN_MAS == conf_data.sensor[ss].method) {                      
; 5893 |         sprintf(buff, "  Points:           %-10i\r\n",                 
; 5894 |                         conf_data.sensor[ss].points);                  
; 5895 |         scia_puts(buff);                                               
; 5897 |         scia_puts("  Point:");                                         
; 5898 |         for (j = 0; j < conf_data.sensor[ss].points; j++) {            
; 5899 |                 sprintf(buff, "%6i    ", j + 1);                       
; 5900 |                 scia_puts(buff);                                       
; 5902 |         scia_puts("\r\n  Mass: ");                                     
; 5903 |         for (j = 0; j < conf_data.sensor[ss].points; j++) {            
; 5904 |                 sprintf(buff, "%10.5f", conf_data.sensor[ss].mass[j]); 
; 5905 |                 scia_puts(buff);                                       
; 5907 |         scia_puts("\r\n  Count:");                                     
; 5908 |         for (j = 0; j < conf_data.sensor[ss].points; j++) {            
; 5909 |                 sprintf(buff, "%10li", conf_data.sensor[ss].adc[j]);   
; 5910 |                 scia_puts(buff);                                       
; 5912 |         scia_puts("\r\n  Slope:    ");                                 
; 5913 |         for (j = 0; j < conf_data.sensor[ss].points - 1; j++) {        
; 5914 |                 sprintf(buff, "%10.5f", conf_data.sensor[ss].slope[j]);
; 5915 |                 scia_puts(buff);                                       
; 5917 |         scia_puts("\r\n  Intercept:");                                 
; 5918 |         for (j = 0; j < conf_data.sensor[ss].points - 1; j++) {        
; 5919 |                 sprintf(buff, "%10.5f", conf_data.sensor[ss].intercept[
;     | j]);                                                                   
; 5920 |                 scia_puts(buff);                                       
; 5922 |         scia_puts("\r\n");                                             
; 5923 | } else {                                                               
;----------------------------------------------------------------------
        MOVB      XAR0,#118             ; [CPU_] |5892| 
        MOV       AL,*+XAR2[AR0]        ; [CPU_] |5892| 
        CMPB      AL,#2                 ; [CPU_] |5892| 
        B         $C$L17,EQ             ; [CPU_] |5892| 
        ; branchcc occurs ; [] |5892| 
	.dwpsn	file "../Source/prod.c",line 5924,column 4,is_stmt,isa 0
;----------------------------------------------------------------------
; 5924 | sprintf(buff, "  Slope:            %-10.5f",                           
; 5925 |                 conf_data.sensor[ss].slope[0]);                        
;----------------------------------------------------------------------
        MOVL      XAR4,#$C$FSL24        ; [CPU_U] |5924| 
        MOVB      XAR0,#178             ; [CPU_] |5924| 
        MOVL      *-SP[2],XAR4          ; [CPU_] |5924| 
        MOVL      ACC,*+XAR2[AR0]       ; [CPU_] |5924| 
        MOVL      XAR4,XAR1             ; [CPU_] |5924| 
        MOVL      *-SP[4],ACC           ; [CPU_] |5924| 
$C$DW$200	.dwtag  DW_TAG_TI_branch
	.dwattr $C$DW$200, DW_AT_low_pc(0x00)
	.dwattr $C$DW$200, DW_AT_name("_sprintf")
	.dwattr $C$DW$200, DW_AT_TI_call

        LCR       #_sprintf             ; [CPU_] |5924| 
        ; call occurs [#_sprintf] ; [] |5924| 
	.dwpsn	file "../Source/prod.c",line 5926,column 4,is_stmt,isa 0
;----------------------------------------------------------------------
; 5926 | scia_puts(buff);                                                       
;----------------------------------------------------------------------
        MOVL      XAR4,XAR1             ; [CPU_] |5926| 
$C$DW$201	.dwtag  DW_TAG_TI_branch
	.dwattr $C$DW$201, DW_AT_low_pc(0x00)
	.dwattr $C$DW$201, DW_AT_name("_scia_puts")
	.dwattr $C$DW$201, DW_AT_TI_call

        LCR       #_scia_puts           ; [CPU_] |5926| 
        ; call occurs [#_scia_puts] ; [] |5926| 
	.dwpsn	file "../Source/prod.c",line 5927,column 4,is_stmt,isa 0
;----------------------------------------------------------------------
; 5927 | sprintf(buff, "  Intercept:        %-10.5f\r\n",                       
; 5928 |                 conf_data.sensor[ss].intercept[0]);                    
;----------------------------------------------------------------------
        MOVL      XAR4,#$C$FSL25        ; [CPU_U] |5927| 
        MOVB      XAR0,#200             ; [CPU_] |5927| 
        MOVL      *-SP[2],XAR4          ; [CPU_] |5927| 
        MOVL      XAR4,XAR1             ; [CPU_] |5927| 
        MOVL      ACC,*+XAR2[AR0]       ; [CPU_] |5927| 
        MOVL      *-SP[4],ACC           ; [CPU_] |5927| 
$C$DW$202	.dwtag  DW_TAG_TI_branch
	.dwattr $C$DW$202, DW_AT_low_pc(0x00)
	.dwattr $C$DW$202, DW_AT_name("_sprintf")
	.dwattr $C$DW$202, DW_AT_TI_call

        LCR       #_sprintf             ; [CPU_] |5927| 
        ; call occurs [#_sprintf] ; [] |5927| 
	.dwpsn	file "../Source/prod.c",line 5929,column 4,is_stmt,isa 0
;----------------------------------------------------------------------
; 5929 | scia_puts(buff);                                                       
; 5932 | ////                                                                   
;----------------------------------------------------------------------
        MOVL      XAR4,XAR1             ; [CPU_] |5929| 
        B         $C$L29,UNC            ; [CPU_] |5929| 
        ; branch occurs ; [] |5929| 
$C$L17:    
	.dwpsn	file "../Source/prod.c",line 5893,column 4,is_stmt,isa 0
        MOVL      XAR4,#$C$FSL26        ; [CPU_U] |5893| 
        MOVB      XAR0,#128             ; [CPU_] |5893| 
        MOVL      *-SP[2],XAR4          ; [CPU_] |5893| 
        MOV       AL,*+XAR2[AR0]        ; [CPU_] |5893| 
        MOVL      XAR4,XAR1             ; [CPU_] |5893| 
        MOV       *-SP[3],AL            ; [CPU_] |5893| 
$C$DW$203	.dwtag  DW_TAG_TI_branch
	.dwattr $C$DW$203, DW_AT_low_pc(0x00)
	.dwattr $C$DW$203, DW_AT_name("_sprintf")
	.dwattr $C$DW$203, DW_AT_TI_call

        LCR       #_sprintf             ; [CPU_] |5893| 
        ; call occurs [#_sprintf] ; [] |5893| 
	.dwpsn	file "../Source/prod.c",line 5895,column 4,is_stmt,isa 0
        MOVL      XAR4,XAR1             ; [CPU_] |5895| 
$C$DW$204	.dwtag  DW_TAG_TI_branch
	.dwattr $C$DW$204, DW_AT_low_pc(0x00)
	.dwattr $C$DW$204, DW_AT_name("_scia_puts")
	.dwattr $C$DW$204, DW_AT_TI_call

        LCR       #_scia_puts           ; [CPU_] |5895| 
        ; call occurs [#_scia_puts] ; [] |5895| 
	.dwpsn	file "../Source/prod.c",line 5897,column 4,is_stmt,isa 0
        MOVL      XAR4,#$C$FSL27        ; [CPU_U] |5897| 
$C$DW$205	.dwtag  DW_TAG_TI_branch
	.dwattr $C$DW$205, DW_AT_low_pc(0x00)
	.dwattr $C$DW$205, DW_AT_name("_scia_puts")
	.dwattr $C$DW$205, DW_AT_TI_call

        LCR       #_scia_puts           ; [CPU_] |5897| 
        ; call occurs [#_scia_puts] ; [] |5897| 
	.dwpsn	file "../Source/prod.c",line 5898,column 9,is_stmt,isa 0
        MOVB      AL,#0                 ; [CPU_] |5898| 
$C$L18:    
	.dwpsn	file "../Source/prod.c",line 5898,column 16,is_stmt,isa 0
        MOVB      XAR0,#128             ; [CPU_] |5898| 
        CMP       AL,*+XAR2[AR0]        ; [CPU_] |5898| 
        B         $C$L27,LT             ; [CPU_] |5898| 
        ; branchcc occurs ; [] |5898| 
	.dwpsn	file "../Source/prod.c",line 5902,column 4,is_stmt,isa 0
        MOVL      XAR4,#$C$FSL28        ; [CPU_U] |5902| 
$C$DW$206	.dwtag  DW_TAG_TI_branch
	.dwattr $C$DW$206, DW_AT_low_pc(0x00)
	.dwattr $C$DW$206, DW_AT_name("_scia_puts")
	.dwattr $C$DW$206, DW_AT_TI_call

        LCR       #_scia_puts           ; [CPU_] |5902| 
        ; call occurs [#_scia_puts] ; [] |5902| 
	.dwpsn	file "../Source/prod.c",line 5903,column 9,is_stmt,isa 0
        MOVB      AL,#0                 ; [CPU_] |5903| 
        MOV       *-SP[7],AL            ; [CPU_] |5903| 
$C$L19:    
	.dwpsn	file "../Source/prod.c",line 5903,column 16,is_stmt,isa 0
        MOVB      XAR0,#128             ; [CPU_] |5903| 
        CMP       AL,*+XAR2[AR0]        ; [CPU_] |5903| 
        B         $C$L26,LT             ; [CPU_] |5903| 
        ; branchcc occurs ; [] |5903| 
	.dwpsn	file "../Source/prod.c",line 5907,column 4,is_stmt,isa 0
        MOVL      XAR4,#$C$FSL29        ; [CPU_U] |5907| 
$C$DW$207	.dwtag  DW_TAG_TI_branch
	.dwattr $C$DW$207, DW_AT_low_pc(0x00)
	.dwattr $C$DW$207, DW_AT_name("_scia_puts")
	.dwattr $C$DW$207, DW_AT_TI_call

        LCR       #_scia_puts           ; [CPU_] |5907| 
        ; call occurs [#_scia_puts] ; [] |5907| 
	.dwpsn	file "../Source/prod.c",line 5908,column 9,is_stmt,isa 0
        MOVB      AL,#0                 ; [CPU_] |5908| 
        MOV       *-SP[7],AL            ; [CPU_] |5908| 
$C$L20:    
	.dwpsn	file "../Source/prod.c",line 5908,column 16,is_stmt,isa 0
        MOVB      XAR0,#128             ; [CPU_] |5908| 
        CMP       AL,*+XAR2[AR0]        ; [CPU_] |5908| 
        B         $C$L25,LT             ; [CPU_] |5908| 
        ; branchcc occurs ; [] |5908| 
	.dwpsn	file "../Source/prod.c",line 5912,column 4,is_stmt,isa 0
        MOVL      XAR4,#$C$FSL30        ; [CPU_U] |5912| 
$C$DW$208	.dwtag  DW_TAG_TI_branch
	.dwattr $C$DW$208, DW_AT_low_pc(0x00)
	.dwattr $C$DW$208, DW_AT_name("_scia_puts")
	.dwattr $C$DW$208, DW_AT_TI_call

        LCR       #_scia_puts           ; [CPU_] |5912| 
        ; call occurs [#_scia_puts] ; [] |5912| 
	.dwpsn	file "../Source/prod.c",line 5913,column 9,is_stmt,isa 0
        MOV       *-SP[7],#0            ; [CPU_] |5913| 
$C$L21:    
	.dwpsn	file "../Source/prod.c",line 5913,column 16,is_stmt,isa 0
        MOVB      XAR0,#128             ; [CPU_] |5913| 
        MOV       AL,*+XAR2[AR0]        ; [CPU_] |5913| 
        ADDB      AL,#-1                ; [CPU_] |5913| 
        CMP       AL,*-SP[7]            ; [CPU_] |5913| 
        B         $C$L24,GT             ; [CPU_] |5913| 
        ; branchcc occurs ; [] |5913| 
	.dwpsn	file "../Source/prod.c",line 5917,column 4,is_stmt,isa 0
        MOVL      XAR4,#$C$FSL31        ; [CPU_U] |5917| 
$C$DW$209	.dwtag  DW_TAG_TI_branch
	.dwattr $C$DW$209, DW_AT_low_pc(0x00)
	.dwattr $C$DW$209, DW_AT_name("_scia_puts")
	.dwattr $C$DW$209, DW_AT_TI_call

        LCR       #_scia_puts           ; [CPU_] |5917| 
        ; call occurs [#_scia_puts] ; [] |5917| 
	.dwpsn	file "../Source/prod.c",line 5918,column 9,is_stmt,isa 0
        MOV       *-SP[7],#0            ; [CPU_] |5918| 
$C$L22:    
	.dwpsn	file "../Source/prod.c",line 5918,column 16,is_stmt,isa 0
        MOVB      XAR0,#128             ; [CPU_] |5918| 
        MOV       AL,*+XAR2[AR0]        ; [CPU_] |5918| 
        ADDB      AL,#-1                ; [CPU_] |5918| 
        CMP       AL,*-SP[7]            ; [CPU_] |5918| 
        B         $C$L23,GT             ; [CPU_] |5918| 
        ; branchcc occurs ; [] |5918| 
	.dwpsn	file "../Source/prod.c",line 5922,column 4,is_stmt,isa 0
        MOVL      XAR4,#$C$FSL11        ; [CPU_U] |5922| 
	.dwpsn	file "../Source/prod.c",line 5923,column 3,is_stmt,isa 0
        B         $C$L29,UNC            ; [CPU_] |5923| 
        ; branch occurs ; [] |5923| 
$C$L23:    
	.dwpsn	file "../Source/prod.c",line 5919,column 5,is_stmt,isa 0
        MOVL      XAR4,#$C$FSL32        ; [CPU_U] |5919| 
        MOVL      *-SP[2],XAR4          ; [CPU_] |5919| 
        MOVL      XAR6,*-SP[12]         ; [CPU_] |5919| 
        SETC      SXM                   ; [CPU_] 
        MOV       AL,*-SP[7]            ; [CPU_] |5919| 
        MOV       ACC,AL << 1           ; [CPU_] |5919| 
        ADDL      ACC,XAR6              ; [CPU_] |5919| 
        ADDL      ACC,XAR3              ; [CPU_] |5919| 
        MOVL      XAR4,ACC              ; [CPU_] |5919| 
        MOVB      XAR0,#200             ; [CPU_] |5919| 
        MOVL      ACC,*+XAR4[AR0]       ; [CPU_] |5919| 
        MOVL      XAR4,XAR1             ; [CPU_] |5919| 
        MOVL      *-SP[4],ACC           ; [CPU_] |5919| 
$C$DW$210	.dwtag  DW_TAG_TI_branch
	.dwattr $C$DW$210, DW_AT_low_pc(0x00)
	.dwattr $C$DW$210, DW_AT_name("_sprintf")
	.dwattr $C$DW$210, DW_AT_TI_call

        LCR       #_sprintf             ; [CPU_] |5919| 
        ; call occurs [#_sprintf] ; [] |5919| 
	.dwpsn	file "../Source/prod.c",line 5920,column 5,is_stmt,isa 0
        MOVL      XAR4,XAR1             ; [CPU_] |5920| 
$C$DW$211	.dwtag  DW_TAG_TI_branch
	.dwattr $C$DW$211, DW_AT_low_pc(0x00)
	.dwattr $C$DW$211, DW_AT_name("_scia_puts")
	.dwattr $C$DW$211, DW_AT_TI_call

        LCR       #_scia_puts           ; [CPU_] |5920| 
        ; call occurs [#_scia_puts] ; [] |5920| 
	.dwpsn	file "../Source/prod.c",line 5918,column 53,is_stmt,isa 0
        INC       *-SP[7]               ; [CPU_] |5918| 
        B         $C$L22,UNC            ; [CPU_] |5918| 
        ; branch occurs ; [] |5918| 
$C$L24:    
	.dwpsn	file "../Source/prod.c",line 5914,column 5,is_stmt,isa 0
        MOVL      XAR4,#$C$FSL32        ; [CPU_U] |5914| 
        MOVL      *-SP[2],XAR4          ; [CPU_] |5914| 
        MOVL      XAR6,*-SP[12]         ; [CPU_] |5914| 
        SETC      SXM                   ; [CPU_] 
        MOV       AL,*-SP[7]            ; [CPU_] |5914| 
        MOV       ACC,AL << 1           ; [CPU_] |5914| 
        ADDL      ACC,XAR6              ; [CPU_] |5914| 
        ADDL      ACC,XAR3              ; [CPU_] |5914| 
        MOVL      XAR4,ACC              ; [CPU_] |5914| 
        MOVB      XAR0,#178             ; [CPU_] |5914| 
        MOVL      ACC,*+XAR4[AR0]       ; [CPU_] |5914| 
        MOVL      XAR4,XAR1             ; [CPU_] |5914| 
        MOVL      *-SP[4],ACC           ; [CPU_] |5914| 
$C$DW$212	.dwtag  DW_TAG_TI_branch
	.dwattr $C$DW$212, DW_AT_low_pc(0x00)
	.dwattr $C$DW$212, DW_AT_name("_sprintf")
	.dwattr $C$DW$212, DW_AT_TI_call

        LCR       #_sprintf             ; [CPU_] |5914| 
        ; call occurs [#_sprintf] ; [] |5914| 
	.dwpsn	file "../Source/prod.c",line 5915,column 5,is_stmt,isa 0
        MOVL      XAR4,XAR1             ; [CPU_] |5915| 
$C$DW$213	.dwtag  DW_TAG_TI_branch
	.dwattr $C$DW$213, DW_AT_low_pc(0x00)
	.dwattr $C$DW$213, DW_AT_name("_scia_puts")
	.dwattr $C$DW$213, DW_AT_TI_call

        LCR       #_scia_puts           ; [CPU_] |5915| 
        ; call occurs [#_scia_puts] ; [] |5915| 
	.dwpsn	file "../Source/prod.c",line 5913,column 53,is_stmt,isa 0
        INC       *-SP[7]               ; [CPU_] |5913| 
        B         $C$L21,UNC            ; [CPU_] |5913| 
        ; branch occurs ; [] |5913| 
$C$L25:    
	.dwpsn	file "../Source/prod.c",line 5909,column 5,is_stmt,isa 0
        MOVL      XAR4,#$C$FSL33        ; [CPU_U] |5909| 
        MOVL      *-SP[2],XAR4          ; [CPU_] |5909| 
        MOVL      XAR6,*-SP[12]         ; [CPU_] |5909| 
        SETC      SXM                   ; [CPU_] 
        MOV       ACC,AL << 1           ; [CPU_] |5909| 
        ADDL      ACC,XAR6              ; [CPU_] |5909| 
        ADDL      ACC,XAR3              ; [CPU_] |5909| 
        MOVL      XAR4,ACC              ; [CPU_] |5909| 
        MOVB      XAR0,#154             ; [CPU_] |5909| 
        MOVL      ACC,*+XAR4[AR0]       ; [CPU_] |5909| 
        MOVL      XAR4,XAR1             ; [CPU_] |5909| 
        MOVL      *-SP[4],ACC           ; [CPU_] |5909| 
$C$DW$214	.dwtag  DW_TAG_TI_branch
	.dwattr $C$DW$214, DW_AT_low_pc(0x00)
	.dwattr $C$DW$214, DW_AT_name("_sprintf")
	.dwattr $C$DW$214, DW_AT_TI_call

        LCR       #_sprintf             ; [CPU_] |5909| 
        ; call occurs [#_sprintf] ; [] |5909| 
	.dwpsn	file "../Source/prod.c",line 5910,column 5,is_stmt,isa 0
        MOVL      XAR4,XAR1             ; [CPU_] |5910| 
$C$DW$215	.dwtag  DW_TAG_TI_branch
	.dwattr $C$DW$215, DW_AT_low_pc(0x00)
	.dwattr $C$DW$215, DW_AT_name("_scia_puts")
	.dwattr $C$DW$215, DW_AT_TI_call

        LCR       #_scia_puts           ; [CPU_] |5910| 
        ; call occurs [#_scia_puts] ; [] |5910| 
	.dwpsn	file "../Source/prod.c",line 5908,column 49,is_stmt,isa 0
        INC       *-SP[7]               ; [CPU_] |5908| 
	.dwpsn	file "../Source/prod.c",line 5910,column 5,is_stmt,isa 0
        MOV       AL,*-SP[7]            ; [CPU_] |5910| 
	.dwpsn	file "../Source/prod.c",line 5908,column 49,is_stmt,isa 0
        B         $C$L20,UNC            ; [CPU_] |5908| 
        ; branch occurs ; [] |5908| 
$C$L26:    
	.dwpsn	file "../Source/prod.c",line 5904,column 5,is_stmt,isa 0
        MOVL      XAR4,#$C$FSL32        ; [CPU_U] |5904| 
        MOVL      *-SP[2],XAR4          ; [CPU_] |5904| 
        MOVL      XAR6,*-SP[12]         ; [CPU_] |5904| 
        SETC      SXM                   ; [CPU_] 
        MOV       ACC,AL << 1           ; [CPU_] |5904| 
        ADDL      ACC,XAR6              ; [CPU_] |5904| 
        ADDL      ACC,XAR3              ; [CPU_] |5904| 
        MOVL      XAR4,ACC              ; [CPU_] |5904| 
        MOVB      XAR0,#130             ; [CPU_] |5904| 
        MOVL      ACC,*+XAR4[AR0]       ; [CPU_] |5904| 
        MOVL      XAR4,XAR1             ; [CPU_] |5904| 
        MOVL      *-SP[4],ACC           ; [CPU_] |5904| 
$C$DW$216	.dwtag  DW_TAG_TI_branch
	.dwattr $C$DW$216, DW_AT_low_pc(0x00)
	.dwattr $C$DW$216, DW_AT_name("_sprintf")
	.dwattr $C$DW$216, DW_AT_TI_call

        LCR       #_sprintf             ; [CPU_] |5904| 
        ; call occurs [#_sprintf] ; [] |5904| 
	.dwpsn	file "../Source/prod.c",line 5905,column 5,is_stmt,isa 0
        MOVL      XAR4,XAR1             ; [CPU_] |5905| 
$C$DW$217	.dwtag  DW_TAG_TI_branch
	.dwattr $C$DW$217, DW_AT_low_pc(0x00)
	.dwattr $C$DW$217, DW_AT_name("_scia_puts")
	.dwattr $C$DW$217, DW_AT_TI_call

        LCR       #_scia_puts           ; [CPU_] |5905| 
        ; call occurs [#_scia_puts] ; [] |5905| 
	.dwpsn	file "../Source/prod.c",line 5903,column 49,is_stmt,isa 0
        INC       *-SP[7]               ; [CPU_] |5903| 
	.dwpsn	file "../Source/prod.c",line 5905,column 5,is_stmt,isa 0
        MOV       AL,*-SP[7]            ; [CPU_] |5905| 
	.dwpsn	file "../Source/prod.c",line 5903,column 49,is_stmt,isa 0
        B         $C$L19,UNC            ; [CPU_] |5903| 
        ; branch occurs ; [] |5903| 
$C$L27:    
	.dwpsn	file "../Source/prod.c",line 5899,column 5,is_stmt,isa 0
        MOVB      AH,#1                 ; [CPU_] |5899| 
        MOVL      XAR4,#$C$FSL34        ; [CPU_U] |5899| 
        ADD       AH,AL                 ; [CPU_] |5899| 
        MOV       *-SP[7],AH            ; [CPU_] |5899| 
        MOVL      *-SP[2],XAR4          ; [CPU_] |5899| 
        MOVL      XAR4,XAR1             ; [CPU_] |5899| 
        MOV       *-SP[3],AH            ; [CPU_] |5899| 
$C$DW$218	.dwtag  DW_TAG_TI_branch
	.dwattr $C$DW$218, DW_AT_low_pc(0x00)
	.dwattr $C$DW$218, DW_AT_name("_sprintf")
	.dwattr $C$DW$218, DW_AT_TI_call

        LCR       #_sprintf             ; [CPU_] |5899| 
        ; call occurs [#_sprintf] ; [] |5899| 
	.dwpsn	file "../Source/prod.c",line 5900,column 5,is_stmt,isa 0
        MOVL      XAR4,XAR1             ; [CPU_] |5900| 
$C$DW$219	.dwtag  DW_TAG_TI_branch
	.dwattr $C$DW$219, DW_AT_low_pc(0x00)
	.dwattr $C$DW$219, DW_AT_name("_scia_puts")
	.dwattr $C$DW$219, DW_AT_TI_call

        LCR       #_scia_puts           ; [CPU_] |5900| 
        ; call occurs [#_scia_puts] ; [] |5900| 
        MOV       AL,*-SP[7]            ; [CPU_] |5900| 
	.dwpsn	file "../Source/prod.c",line 5898,column 49,is_stmt,isa 0
        B         $C$L18,UNC            ; [CPU_] |5898| 
        ; branch occurs ; [] |5898| 
$C$L28:    
	.dwpsn	file "../Source/prod.c",line 5855,column 3,is_stmt,isa 0
        MOVL      XAR4,#$C$FSL35        ; [CPU_U] |5855| 
$C$L29:    
$C$DW$220	.dwtag  DW_TAG_TI_branch
	.dwattr $C$DW$220, DW_AT_low_pc(0x00)
	.dwattr $C$DW$220, DW_AT_name("_scia_puts")
	.dwattr $C$DW$220, DW_AT_TI_call

        LCR       #_scia_puts           ; [CPU_] |5855| 
        ; call occurs [#_scia_puts] ; [] |5855| 
        SUBB      SP,#12                ; [CPU_U] 
	.dwcfi	cfa_offset, -8
        MOVL      XAR3,*--SP            ; [CPU_] 
	.dwcfi	cfa_offset, -6
	.dwcfi	restore_reg, 11
        MOVL      XAR2,*--SP            ; [CPU_] 
	.dwcfi	cfa_offset, -4
	.dwcfi	restore_reg, 9
        MOVL      XAR1,*--SP            ; [CPU_] 
	.dwcfi	cfa_offset, -2
	.dwcfi	restore_reg, 7
$C$DW$221	.dwtag  DW_TAG_TI_branch
	.dwattr $C$DW$221, DW_AT_low_pc(0x00)
	.dwattr $C$DW$221, DW_AT_TI_return

        LRETR     ; [CPU_] 
        ; return occurs ; [] 
	.dwattr $C$DW$167, DW_AT_TI_end_file("../Source/prod.c")
	.dwattr $C$DW$167, DW_AT_TI_end_line(0x172d)
	.dwattr $C$DW$167, DW_AT_TI_end_column(0x01)
	.dwendentry
	.dwendtag $C$DW$167

	.sect	".text"
	.clink
	.global	_print_limits

$C$DW$222	.dwtag  DW_TAG_subprogram
	.dwattr $C$DW$222, DW_AT_name("print_limits")
	.dwattr $C$DW$222, DW_AT_low_pc(_print_limits)
	.dwattr $C$DW$222, DW_AT_high_pc(0x00)
	.dwattr $C$DW$222, DW_AT_TI_symbol_name("_print_limits")
	.dwattr $C$DW$222, DW_AT_external
	.dwattr $C$DW$222, DW_AT_TI_begin_file("../Source/prod.c")
	.dwattr $C$DW$222, DW_AT_TI_begin_line(0x1774)
	.dwattr $C$DW$222, DW_AT_TI_begin_column(0x06)
	.dwattr $C$DW$222, DW_AT_TI_max_frame_size(-20)
	.dwpsn	file "../Source/prod.c",line 6004,column 25,is_stmt,address _print_limits,isa 0

	.dwfde $C$DW$CIE, _print_limits
$C$DW$223	.dwtag  DW_TAG_variable
	.dwattr $C$DW$223, DW_AT_name("buff")
	.dwattr $C$DW$223, DW_AT_TI_symbol_name("_buff$7")
	.dwattr $C$DW$223, DW_AT_type(*$C$DW$T$380)
	.dwattr $C$DW$223, DW_AT_location[DW_OP_addr _buff$7]

;----------------------------------------------------------------------
; 6004 | void print_limits(void) {                                              
; 6005 | int ii;                                                                
; 6006 | static char buff[64];                                                  
; 6007 | const char *up;                         // unit point                  
;----------------------------------------------------------------------

;***************************************************************
;* FNAME: _print_limits                 FR SIZE:  18           *
;*                                                             *
;* FUNCTION ENVIRONMENT                                        *
;*                                                             *
;* FUNCTION PROPERTIES                                         *
;*                            8 Parameter,  4 Auto,  6 SOE     *
;***************************************************************

_print_limits:
;* AR6   assigned to $O$S1
;* AR5   assigned to $O$S2
;* AR4   assigned to $O$S3
$C$DW$224	.dwtag  DW_TAG_variable
	.dwattr $C$DW$224, DW_AT_name("ii")
	.dwattr $C$DW$224, DW_AT_TI_symbol_name("_ii")
	.dwattr $C$DW$224, DW_AT_type(*$C$DW$T$10)
	.dwattr $C$DW$224, DW_AT_location[DW_OP_breg20 -9]

;* AR3   assigned to _up
$C$DW$225	.dwtag  DW_TAG_variable
	.dwattr $C$DW$225, DW_AT_name("up")
	.dwattr $C$DW$225, DW_AT_TI_symbol_name("_up")
	.dwattr $C$DW$225, DW_AT_type(*$C$DW$T$177)
	.dwattr $C$DW$225, DW_AT_location[DW_OP_reg10]

;* AL    assigned to $O$P4
;* AR1   assigned to $O$U13
;* AR2   assigned to $O$K8
	.dwcfi	cfa_offset, -2
	.dwcfi	save_reg_to_mem, 26, 0
        MOVL      *SP++,XAR1            ; [CPU_] 
	.dwcfi	save_reg_to_mem, 7, 2
	.dwcfi	cfa_offset, -4
        MOVL      *SP++,XAR2            ; [CPU_] 
	.dwcfi	save_reg_to_mem, 9, 4
	.dwcfi	cfa_offset, -6
        MOVL      *SP++,XAR3            ; [CPU_] 
	.dwcfi	save_reg_to_mem, 11, 6
	.dwcfi	cfa_offset, -8
        ADDB      SP,#12                ; [CPU_U] 
	.dwcfi	cfa_offset, -20
	.dwpsn	file "../Source/prod.c",line 6009,column 2,is_stmt,isa 0
;----------------------------------------------------------------------
; 6009 | scia_puts("\r\nLIMIT Settings:\r\n");                                  
;----------------------------------------------------------------------
        MOVL      XAR4,#$C$FSL36        ; [CPU_U] |6009| 
$C$DW$226	.dwtag  DW_TAG_TI_branch
	.dwattr $C$DW$226, DW_AT_low_pc(0x00)
	.dwattr $C$DW$226, DW_AT_name("_scia_puts")
	.dwattr $C$DW$226, DW_AT_TI_call

        LCR       #_scia_puts           ; [CPU_] |6009| 
        ; call occurs [#_scia_puts] ; [] |6009| 
        MOVL      XAR2,#_buff$7         ; [CPU_U] 
        MOVL      XAR4,#_conf_data      ; [CPU_U] 
	.dwpsn	file "../Source/prod.c",line 6011,column 7,is_stmt,isa 0
;----------------------------------------------------------------------
; 6011 | for (ii = 0; ii < LIM_MAX; ii++) {                                     
;----------------------------------------------------------------------
        MOV       *-SP[9],#0            ; [CPU_] |6011| 
        MOVL      ACC,XAR4              ; [CPU_] 
        MOVL      *-SP[12],XAR4         ; [CPU_] 
        ADD       ACC,#1591 << 1        ; [CPU_] 
        MOVL      XAR1,ACC              ; [CPU_] 
$C$L30:    
	.dwpsn	file "../Source/prod.c",line 6012,column 3,is_stmt,isa 0
;----------------------------------------------------------------------
; 6012 | sprintf(buff, "LIMIT %u: ", ii + 1);                                   
;----------------------------------------------------------------------
        MOVL      XAR4,#$C$FSL37        ; [CPU_U] |6012| 
        MOVB      AL,#1                 ; [CPU_] |6012| 
        MOVL      *-SP[2],XAR4          ; [CPU_] |6012| 
        ADD       AL,*-SP[9]            ; [CPU_] |6012| 
        MOVL      XAR4,XAR2             ; [CPU_] |6012| 
        MOV       *-SP[3],AL            ; [CPU_] |6012| 
$C$DW$227	.dwtag  DW_TAG_TI_branch
	.dwattr $C$DW$227, DW_AT_low_pc(0x00)
	.dwattr $C$DW$227, DW_AT_name("_sprintf")
	.dwattr $C$DW$227, DW_AT_TI_call

        LCR       #_sprintf             ; [CPU_] |6012| 
        ; call occurs [#_sprintf] ; [] |6012| 
	.dwpsn	file "../Source/prod.c",line 6013,column 3,is_stmt,isa 0
;----------------------------------------------------------------------
; 6013 | scia_puts(buff);                                                       
; 6015 | if (conf_data.lim[ii].limit & LIM_ON) {                                
;----------------------------------------------------------------------
        MOVL      XAR4,XAR2             ; [CPU_] |6013| 
$C$DW$228	.dwtag  DW_TAG_TI_branch
	.dwattr $C$DW$228, DW_AT_low_pc(0x00)
	.dwattr $C$DW$228, DW_AT_name("_scia_puts")
	.dwattr $C$DW$228, DW_AT_TI_call

        LCR       #_scia_puts           ; [CPU_] |6013| 
        ; call occurs [#_scia_puts] ; [] |6013| 
	.dwpsn	file "../Source/prod.c",line 6017,column 4,is_stmt,isa 0
;----------------------------------------------------------------------
; 6017 | switch (conf_data.lim[ii].what) {                                      
; 6018 | case VFD_LOAD:                                                         
; 6019 | case VFD_PEAK:                                                         
; 6020 | case VFD_VALL:                                                         
; 6021 |         up =                                                           
; 6022 |                         UNITS[0x0f                                     
; 6023 |                                         & conf_data.sensor[conf_data.ch
;     | [conf_data.lim[ii].ch].ci].ounit];                                     
; 6024 |         break;                                                         
; 6025 | case VFD_POSI:                                                         
; 6026 |         up = POS_U;                                                    
; 6027 |         break;                                                         
; 6028 | case VFD_VELO:                                                         
;----------------------------------------------------------------------
        TBIT      *+XAR1[2],#7          ; [CPU_] |6017| 
        B         $C$L40,NTC            ; [CPU_] |6017| 
        ; branchcc occurs ; [] |6017| 
        MOV       AL,*+XAR1[0]          ; [CPU_] |6017| 
        CMPB      AL,#2                 ; [CPU_] |6017| 
        B         $C$L32,LOS            ; [CPU_] |6017| 
        ; branchcc occurs ; [] |6017| 
        CMPB      AL,#3                 ; [CPU_] |6017| 
        B         $C$L31,EQ             ; [CPU_] |6017| 
        ; branchcc occurs ; [] |6017| 
        CMPB      AL,#4                 ; [CPU_] |6017| 
        B         $C$L33,NEQ            ; [CPU_] |6017| 
        ; branchcc occurs ; [] |6017| 
        MOVW      DP,#_VEL_U            ; [CPU_U] 
	.dwpsn	file "../Source/prod.c",line 6029,column 5,is_stmt,isa 0
;----------------------------------------------------------------------
; 6029 | up = VEL_U;                                                            
;----------------------------------------------------------------------
        MOVL      XAR3,@_VEL_U          ; [CPU_] |6029| 
	.dwpsn	file "../Source/prod.c",line 6030,column 5,is_stmt,isa 0
;----------------------------------------------------------------------
; 6030 | break;                                                                 
;----------------------------------------------------------------------
        B         $C$L33,UNC            ; [CPU_] |6030| 
        ; branch occurs ; [] |6030| 
$C$L31:    
        MOVW      DP,#_POS_U            ; [CPU_U] 
	.dwpsn	file "../Source/prod.c",line 6026,column 5,is_stmt,isa 0
        MOVL      XAR3,@_POS_U          ; [CPU_] |6026| 
	.dwpsn	file "../Source/prod.c",line 6027,column 5,is_stmt,isa 0
        B         $C$L33,UNC            ; [CPU_] |6027| 
        ; branch occurs ; [] |6027| 
$C$L32:    
	.dwpsn	file "../Source/prod.c",line 6021,column 5,is_stmt,isa 0
        MOVL      XAR6,*-SP[12]         ; [CPU_] |6021| 
        MOV       T,#10                 ; [CPU_] |6021| 
        MPYXU     ACC,T,*+XAR1[1]       ; [CPU_] |6021| 
        ADDL      ACC,XAR6              ; [CPU_] |6021| 
        MOVL      XAR4,ACC              ; [CPU_] |6021| 
        MOVB      XAR0,#42              ; [CPU_] |6021| 
        MOV       T,*+XAR4[AR0]         ; [CPU_] |6021| 
        MPYB      ACC,T,#152            ; [CPU_] |6021| 
        ADDL      ACC,XAR6              ; [CPU_] |6021| 
        MOVL      XAR4,ACC              ; [CPU_] |6021| 
        MOVB      XAR0,#125             ; [CPU_] |6021| 
        SETC      SXM                   ; [CPU_] 
        MOV       AL,*+XAR4[AR0]        ; [CPU_] |6021| 
        ANDB      AL,#0x0f              ; [CPU_] |6021| 
        MOVL      XAR4,#_UNITS          ; [CPU_U] |6021| 
        MOV       ACC,AL << 1           ; [CPU_] |6021| 
        ADDL      XAR4,ACC              ; [CPU_] |6021| 
        MOVL      XAR3,*+XAR4[0]        ; [CPU_] |6021| 
$C$L33:    
	.dwpsn	file "../Source/prod.c",line 6033,column 4,is_stmt,isa 0
;----------------------------------------------------------------------
; 6033 | sprintf(buff, "ON %s channel %u\r\n", LPV[conf_data.lim[ii].what],     
; 6034 |                 conf_data.lim[ii].ch + 1);                             
;----------------------------------------------------------------------
        MOVL      XAR4,#$C$FSL38        ; [CPU_U] |6033| 
        CLRC      SXM                   ; [CPU_] 
        MOVL      *-SP[2],XAR4          ; [CPU_] |6033| 
        MOV       ACC,*+XAR1[0] << 1    ; [CPU_] |6033| 
        MOVL      XAR4,#_LPV            ; [CPU_U] |6033| 
        ADDL      XAR4,ACC              ; [CPU_] |6033| 
        MOVL      ACC,*+XAR4[0]         ; [CPU_] |6033| 
        MOVL      *-SP[4],ACC           ; [CPU_] |6033| 
        MOVL      XAR4,XAR2             ; [CPU_] |6033| 
        MOV       AL,*+XAR1[1]          ; [CPU_] |6033| 
        ADDB      AL,#1                 ; [CPU_] |6033| 
        MOV       *-SP[5],AL            ; [CPU_] |6033| 
$C$DW$229	.dwtag  DW_TAG_TI_branch
	.dwattr $C$DW$229, DW_AT_low_pc(0x00)
	.dwattr $C$DW$229, DW_AT_name("_sprintf")
	.dwattr $C$DW$229, DW_AT_TI_call

        LCR       #_sprintf             ; [CPU_] |6033| 
        ; call occurs [#_sprintf] ; [] |6033| 
	.dwpsn	file "../Source/prod.c",line 6035,column 4,is_stmt,isa 0
;----------------------------------------------------------------------
; 6035 | scia_puts(buff);                                                       
;----------------------------------------------------------------------
        MOVL      XAR4,XAR2             ; [CPU_] |6035| 
$C$DW$230	.dwtag  DW_TAG_TI_branch
	.dwattr $C$DW$230, DW_AT_low_pc(0x00)
	.dwattr $C$DW$230, DW_AT_name("_scia_puts")
	.dwattr $C$DW$230, DW_AT_TI_call

        LCR       #_scia_puts           ; [CPU_] |6035| 
        ; call occurs [#_scia_puts] ; [] |6035| 
	.dwpsn	file "../Source/prod.c",line 6036,column 4,is_stmt,isa 0
;----------------------------------------------------------------------
; 6036 | sprintf(buff, "  Normal %s,  Latch %s, Trigger %s\r\n",                
; 6037 |                 (LIM_NC & conf_data.lim[ii].limit) ? "Closed" : "Open "
;     | ,                                                                      
; 6038 |                 (LIM_LA & conf_data.lim[ii].limit) ? "ON " : "OFF",    
; 6039 |                 (LIM_HL & conf_data.lim[ii].limit) ? ">" : "<");       
;----------------------------------------------------------------------
        TBIT      *+XAR1[2],#6          ; [CPU_] |6036| 
        B         $C$L34,TC             ; [CPU_] |6036| 
        ; branchcc occurs ; [] |6036| 
        MOVL      XAR6,#$C$FSL39        ; [CPU_U] |6036| 
        B         $C$L35,UNC            ; [CPU_] |6036| 
        ; branch occurs ; [] |6036| 
$C$L34:    
        MOVL      XAR6,#$C$FSL40        ; [CPU_U] |6036| 
$C$L35:    
        TBIT      *+XAR1[2],#5          ; [CPU_] |6036| 
        B         $C$L36,TC             ; [CPU_] |6036| 
        ; branchcc occurs ; [] |6036| 
        MOVL      XAR5,#$C$FSL41        ; [CPU_U] |6036| 
        B         $C$L37,UNC            ; [CPU_] |6036| 
        ; branch occurs ; [] |6036| 
$C$L36:    
        MOVL      XAR5,#$C$FSL42        ; [CPU_U] |6036| 
$C$L37:    
        TBIT      *+XAR1[2],#1          ; [CPU_] |6036| 
        B         $C$L38,TC             ; [CPU_] |6036| 
        ; branchcc occurs ; [] |6036| 
        MOVL      XAR4,#$C$FSL43        ; [CPU_U] |6036| 
        B         $C$L39,UNC            ; [CPU_] |6036| 
        ; branch occurs ; [] |6036| 
$C$L38:    
        MOVL      XAR4,#$C$FSL44        ; [CPU_U] |6036| 
$C$L39:    
        MOVL      XAR7,#$C$FSL45        ; [CPU_U] |6036| 
        MOVL      *-SP[2],XAR7          ; [CPU_] |6036| 
        MOVL      *-SP[4],XAR6          ; [CPU_] |6036| 
        MOVL      *-SP[6],XAR5          ; [CPU_] |6036| 
        MOVL      *-SP[8],XAR4          ; [CPU_] |6036| 
        MOVL      XAR4,XAR2             ; [CPU_] |6036| 
$C$DW$231	.dwtag  DW_TAG_TI_branch
	.dwattr $C$DW$231, DW_AT_low_pc(0x00)
	.dwattr $C$DW$231, DW_AT_name("_sprintf")
	.dwattr $C$DW$231, DW_AT_TI_call

        LCR       #_sprintf             ; [CPU_] |6036| 
        ; call occurs [#_sprintf] ; [] |6036| 
	.dwpsn	file "../Source/prod.c",line 6040,column 4,is_stmt,isa 0
;----------------------------------------------------------------------
; 6040 | scia_puts(buff);                                                       
;----------------------------------------------------------------------
        MOVL      XAR4,XAR2             ; [CPU_] |6040| 
$C$DW$232	.dwtag  DW_TAG_TI_branch
	.dwattr $C$DW$232, DW_AT_low_pc(0x00)
	.dwattr $C$DW$232, DW_AT_name("_scia_puts")
	.dwattr $C$DW$232, DW_AT_TI_call

        LCR       #_scia_puts           ; [CPU_] |6040| 
        ; call occurs [#_scia_puts] ; [] |6040| 
	.dwpsn	file "../Source/prod.c",line 6041,column 4,is_stmt,isa 0
;----------------------------------------------------------------------
; 6041 | sprintf(buff, "  Limit value set:  %-9.5f%s",                          
; 6042 |                 conf_data.lim[ii].limits, up);                         
;----------------------------------------------------------------------
        MOVL      XAR4,#$C$FSL46        ; [CPU_U] |6041| 
        MOVL      *-SP[2],XAR4          ; [CPU_] |6041| 
        MOVL      XAR4,XAR2             ; [CPU_] |6041| 
        MOVL      ACC,*+XAR1[4]         ; [CPU_] |6041| 
        MOVL      *-SP[4],ACC           ; [CPU_] |6041| 
        MOVL      *-SP[6],XAR3          ; [CPU_] |6041| 
$C$DW$233	.dwtag  DW_TAG_TI_branch
	.dwattr $C$DW$233, DW_AT_low_pc(0x00)
	.dwattr $C$DW$233, DW_AT_name("_sprintf")
	.dwattr $C$DW$233, DW_AT_TI_call

        LCR       #_sprintf             ; [CPU_] |6041| 
        ; call occurs [#_sprintf] ; [] |6041| 
	.dwpsn	file "../Source/prod.c",line 6043,column 4,is_stmt,isa 0
;----------------------------------------------------------------------
; 6043 | scia_puts(buff);                                                       
;----------------------------------------------------------------------
        MOVL      XAR4,XAR2             ; [CPU_] |6043| 
$C$DW$234	.dwtag  DW_TAG_TI_branch
	.dwattr $C$DW$234, DW_AT_low_pc(0x00)
	.dwattr $C$DW$234, DW_AT_name("_scia_puts")
	.dwattr $C$DW$234, DW_AT_TI_call

        LCR       #_scia_puts           ; [CPU_] |6043| 
        ; call occurs [#_scia_puts] ; [] |6043| 
	.dwpsn	file "../Source/prod.c",line 6044,column 4,is_stmt,isa 0
;----------------------------------------------------------------------
; 6044 | sprintf(buff, " reset:  %-9.5f%s\r\n", conf_data.lim[ii].limitr,       
; 6045 |                 up);                                                   
;----------------------------------------------------------------------
        MOVL      XAR4,#$C$FSL47        ; [CPU_U] |6044| 
        MOVL      *-SP[2],XAR4          ; [CPU_] |6044| 
        MOVL      XAR4,XAR2             ; [CPU_] |6044| 
        MOVL      ACC,*+XAR1[6]         ; [CPU_] |6044| 
        MOVL      *-SP[4],ACC           ; [CPU_] |6044| 
        MOVL      *-SP[6],XAR3          ; [CPU_] |6044| 
$C$DW$235	.dwtag  DW_TAG_TI_branch
	.dwattr $C$DW$235, DW_AT_low_pc(0x00)
	.dwattr $C$DW$235, DW_AT_name("_sprintf")
	.dwattr $C$DW$235, DW_AT_TI_call

        LCR       #_sprintf             ; [CPU_] |6044| 
        ; call occurs [#_sprintf] ; [] |6044| 
	.dwpsn	file "../Source/prod.c",line 6046,column 4,is_stmt,isa 0
;----------------------------------------------------------------------
; 6046 | scia_puts(buff);                                                       
;----------------------------------------------------------------------
        MOVL      XAR4,XAR2             ; [CPU_] |6046| 
	.dwpsn	file "../Source/prod.c",line 6047,column 3,is_stmt,isa 0
;----------------------------------------------------------------------
; 6047 | } else {                                                               
;----------------------------------------------------------------------
        B         $C$L41,UNC            ; [CPU_] |6047| 
        ; branch occurs ; [] |6047| 
$C$L40:    
	.dwpsn	file "../Source/prod.c",line 6048,column 4,is_stmt,isa 0
;----------------------------------------------------------------------
; 6048 | scia_puts("OFF\r\n");                                                  
;----------------------------------------------------------------------
        MOVL      XAR4,#$C$FSL48        ; [CPU_U] |6048| 
$C$L41:    
$C$DW$236	.dwtag  DW_TAG_TI_branch
	.dwattr $C$DW$236, DW_AT_low_pc(0x00)
	.dwattr $C$DW$236, DW_AT_name("_scia_puts")
	.dwattr $C$DW$236, DW_AT_TI_call

        LCR       #_scia_puts           ; [CPU_] |6048| 
        ; call occurs [#_scia_puts] ; [] |6048| 
	.dwpsn	file "../Source/prod.c",line 6011,column 15,is_stmt,isa 0
        ADDB      XAR1,#8               ; [CPU_] |6011| 
        INC       *-SP[9]               ; [CPU_] |6011| 
        MOV       AL,*-SP[9]            ; [CPU_] |6011| 
        CMPB      AL,#4                 ; [CPU_] |6011| 
        B         $C$L30,LT             ; [CPU_] |6011| 
        ; branchcc occurs ; [] |6011| 
        SUBB      SP,#12                ; [CPU_U] 
	.dwcfi	cfa_offset, -8
        MOVL      XAR3,*--SP            ; [CPU_] 
	.dwcfi	cfa_offset, -6
	.dwcfi	restore_reg, 11
        MOVL      XAR2,*--SP            ; [CPU_] 
	.dwcfi	cfa_offset, -4
	.dwcfi	restore_reg, 9
        MOVL      XAR1,*--SP            ; [CPU_] 
	.dwcfi	cfa_offset, -2
	.dwcfi	restore_reg, 7
$C$DW$237	.dwtag  DW_TAG_TI_branch
	.dwattr $C$DW$237, DW_AT_low_pc(0x00)
	.dwattr $C$DW$237, DW_AT_TI_return

        LRETR     ; [CPU_] 
        ; return occurs ; [] 
	.dwattr $C$DW$222, DW_AT_TI_end_file("../Source/prod.c")
	.dwattr $C$DW$222, DW_AT_TI_end_line(0x17a3)
	.dwattr $C$DW$222, DW_AT_TI_end_column(0x01)
	.dwendentry
	.dwendtag $C$DW$222

	.sect	".text"
	.clink
	.global	_print_dac

$C$DW$238	.dwtag  DW_TAG_subprogram
	.dwattr $C$DW$238, DW_AT_name("print_dac")
	.dwattr $C$DW$238, DW_AT_low_pc(_print_dac)
	.dwattr $C$DW$238, DW_AT_high_pc(0x00)
	.dwattr $C$DW$238, DW_AT_TI_symbol_name("_print_dac")
	.dwattr $C$DW$238, DW_AT_external
	.dwattr $C$DW$238, DW_AT_TI_begin_file("../Source/prod.c")
	.dwattr $C$DW$238, DW_AT_TI_begin_line(0x1750)
	.dwattr $C$DW$238, DW_AT_TI_begin_column(0x06)
	.dwattr $C$DW$238, DW_AT_TI_max_frame_size(-16)
	.dwpsn	file "../Source/prod.c",line 5968,column 22,is_stmt,address _print_dac,isa 0

	.dwfde $C$DW$CIE, _print_dac
$C$DW$239	.dwtag  DW_TAG_variable
	.dwattr $C$DW$239, DW_AT_name("buff")
	.dwattr $C$DW$239, DW_AT_TI_symbol_name("_buff$6")
	.dwattr $C$DW$239, DW_AT_type(*$C$DW$T$380)
	.dwattr $C$DW$239, DW_AT_location[DW_OP_addr _buff$6]

;----------------------------------------------------------------------
; 5968 | void print_dac(void) {                                                 
; 5969 | int l;                                                                 
; 5970 | static char buff[64];                                                  
;----------------------------------------------------------------------

;***************************************************************
;* FNAME: _print_dac                    FR SIZE:  14           *
;*                                                             *
;* FUNCTION ENVIRONMENT                                        *
;*                                                             *
;* FUNCTION PROPERTIES                                         *
;*                            8 Parameter,  0 Auto,  6 SOE     *
;***************************************************************

_print_dac:
;* AR1   assigned to _l
$C$DW$240	.dwtag  DW_TAG_variable
	.dwattr $C$DW$240, DW_AT_name("l")
	.dwattr $C$DW$240, DW_AT_TI_symbol_name("_l")
	.dwattr $C$DW$240, DW_AT_type(*$C$DW$T$10)
	.dwattr $C$DW$240, DW_AT_location[DW_OP_reg6]

;* AR2   assigned to $O$U13
;* AR3   assigned to $O$K8
	.dwcfi	cfa_offset, -2
	.dwcfi	save_reg_to_mem, 26, 0
        MOVL      *SP++,XAR1            ; [CPU_] 
	.dwcfi	save_reg_to_mem, 7, 2
	.dwcfi	cfa_offset, -4
        MOVL      *SP++,XAR2            ; [CPU_] 
	.dwcfi	save_reg_to_mem, 9, 4
	.dwcfi	cfa_offset, -6
        MOVL      *SP++,XAR3            ; [CPU_] 
	.dwcfi	save_reg_to_mem, 11, 6
	.dwcfi	cfa_offset, -8
        ADDB      SP,#8                 ; [CPU_U] 
	.dwcfi	cfa_offset, -16
	.dwpsn	file "../Source/prod.c",line 5972,column 2,is_stmt,isa 0
;----------------------------------------------------------------------
; 5972 | scia_puts("\r\nDAC Settings:\r\n");                                    
;----------------------------------------------------------------------
        MOVL      XAR4,#$C$FSL49        ; [CPU_U] |5972| 
$C$DW$241	.dwtag  DW_TAG_TI_branch
	.dwattr $C$DW$241, DW_AT_low_pc(0x00)
	.dwattr $C$DW$241, DW_AT_name("_scia_puts")
	.dwattr $C$DW$241, DW_AT_TI_call

        LCR       #_scia_puts           ; [CPU_] |5972| 
        ; call occurs [#_scia_puts] ; [] |5972| 
	.dwpsn	file "../Source/prod.c",line 5974,column 7,is_stmt,isa 0
;----------------------------------------------------------------------
; 5974 | for (l = 0; l < DAC_MAX; l++) {                                        
;----------------------------------------------------------------------
        MOVB      XAR1,#0               ; [CPU_] |5974| 
        MOVL      XAR3,#_buff$6         ; [CPU_U] 
        MOVL      XAR2,#_conf_data+3134 ; [CPU_U] 
$C$L42:    
	.dwpsn	file "../Source/prod.c",line 5975,column 3,is_stmt,isa 0
;----------------------------------------------------------------------
; 5975 | sprintf(buff, "DAC channel %u:\r\n", l + 1);                           
;----------------------------------------------------------------------
        MOVL      XAR4,#$C$FSL50        ; [CPU_U] |5975| 
        MOVB      AL,#1                 ; [CPU_] |5975| 
        MOVL      *-SP[2],XAR4          ; [CPU_] |5975| 
        ADD       AL,AR1                ; [CPU_] |5975| 
        MOV       *-SP[3],AL            ; [CPU_] |5975| 
        MOVL      XAR4,XAR3             ; [CPU_] |5975| 
$C$DW$242	.dwtag  DW_TAG_TI_branch
	.dwattr $C$DW$242, DW_AT_low_pc(0x00)
	.dwattr $C$DW$242, DW_AT_name("_sprintf")
	.dwattr $C$DW$242, DW_AT_TI_call

        LCR       #_sprintf             ; [CPU_] |5975| 
        ; call occurs [#_sprintf] ; [] |5975| 
	.dwpsn	file "../Source/prod.c",line 5976,column 3,is_stmt,isa 0
;----------------------------------------------------------------------
; 5976 | scia_puts(buff);                                                       
;----------------------------------------------------------------------
        MOVL      XAR4,XAR3             ; [CPU_] |5976| 
$C$DW$243	.dwtag  DW_TAG_TI_branch
	.dwattr $C$DW$243, DW_AT_low_pc(0x00)
	.dwattr $C$DW$243, DW_AT_name("_scia_puts")
	.dwattr $C$DW$243, DW_AT_TI_call

        LCR       #_scia_puts           ; [CPU_] |5976| 
        ; call occurs [#_scia_puts] ; [] |5976| 
	.dwpsn	file "../Source/prod.c",line 5978,column 3,is_stmt,isa 0
;----------------------------------------------------------------------
; 5978 | sprintf(buff,                                                          
; 5979 |                 "  Calibration: slope: (n)%.3f, (p)%.3f, intercept:%.3f
;     | \r\n",                                                                 
; 5980 |                 conf_data.dac[l].dslopen, conf_data.dac[l].dslopen,    
; 5981 |                 conf_data.dac[l].dint);                                
;----------------------------------------------------------------------
        MOVL      XAR4,#$C$FSL51        ; [CPU_U] |5978| 
        MOVL      *-SP[2],XAR4          ; [CPU_] |5978| 
        MOVL      ACC,*+XAR2[4]         ; [CPU_] |5978| 
        MOVL      XAR4,XAR3             ; [CPU_] |5978| 
        MOVL      *-SP[4],ACC           ; [CPU_] |5978| 
        MOVL      ACC,*+XAR2[4]         ; [CPU_] |5978| 
        MOVL      *-SP[6],ACC           ; [CPU_] |5978| 
        MOVL      ACC,*+XAR2[6]         ; [CPU_] |5978| 
        MOVL      *-SP[8],ACC           ; [CPU_] |5978| 
$C$DW$244	.dwtag  DW_TAG_TI_branch
	.dwattr $C$DW$244, DW_AT_low_pc(0x00)
	.dwattr $C$DW$244, DW_AT_name("_sprintf")
	.dwattr $C$DW$244, DW_AT_TI_call

        LCR       #_sprintf             ; [CPU_] |5978| 
        ; call occurs [#_sprintf] ; [] |5978| 
	.dwpsn	file "../Source/prod.c",line 5982,column 3,is_stmt,isa 0
;----------------------------------------------------------------------
; 5982 | scia_puts(buff);                                                       
;----------------------------------------------------------------------
        MOVL      XAR4,XAR3             ; [CPU_] |5982| 
$C$DW$245	.dwtag  DW_TAG_TI_branch
	.dwattr $C$DW$245, DW_AT_low_pc(0x00)
	.dwattr $C$DW$245, DW_AT_name("_scia_puts")
	.dwattr $C$DW$245, DW_AT_TI_call

        LCR       #_scia_puts           ; [CPU_] |5982| 
        ; call occurs [#_scia_puts] ; [] |5982| 
	.dwpsn	file "../Source/prod.c",line 5984,column 3,is_stmt,isa 0
;----------------------------------------------------------------------
; 5984 | sprintf(buff, "  %s", LPV[conf_data.dac[l].what]);                     
;----------------------------------------------------------------------
        MOVL      XAR4,#$C$FSL52        ; [CPU_U] |5984| 
        CLRC      SXM                   ; [CPU_] 
        MOVL      *-SP[2],XAR4          ; [CPU_] |5984| 
        MOVL      XAR4,#_LPV            ; [CPU_U] |5984| 
        MOV       ACC,*+XAR2[0] << 1    ; [CPU_] |5984| 
        ADDL      XAR4,ACC              ; [CPU_] |5984| 
        MOVL      ACC,*+XAR4[0]         ; [CPU_] |5984| 
        MOVL      XAR4,XAR3             ; [CPU_] |5984| 
        MOVL      *-SP[4],ACC           ; [CPU_] |5984| 
$C$DW$246	.dwtag  DW_TAG_TI_branch
	.dwattr $C$DW$246, DW_AT_low_pc(0x00)
	.dwattr $C$DW$246, DW_AT_name("_sprintf")
	.dwattr $C$DW$246, DW_AT_TI_call

        LCR       #_sprintf             ; [CPU_] |5984| 
        ; call occurs [#_sprintf] ; [] |5984| 
	.dwpsn	file "../Source/prod.c",line 5985,column 3,is_stmt,isa 0
;----------------------------------------------------------------------
; 5985 | scia_puts(buff);                                                       
;----------------------------------------------------------------------
        MOVL      XAR4,XAR3             ; [CPU_] |5985| 
$C$DW$247	.dwtag  DW_TAG_TI_branch
	.dwattr $C$DW$247, DW_AT_low_pc(0x00)
	.dwattr $C$DW$247, DW_AT_name("_scia_puts")
	.dwattr $C$DW$247, DW_AT_TI_call

        LCR       #_scia_puts           ; [CPU_] |5985| 
        ; call occurs [#_scia_puts] ; [] |5985| 
	.dwpsn	file "../Source/prod.c",line 5987,column 3,is_stmt,isa 0
;----------------------------------------------------------------------
; 5987 | if ( VFD_VOLT != conf_data.dac[l].what) {                              
;----------------------------------------------------------------------
        MOV       AL,*+XAR2[0]          ; [CPU_] |5987| 
        CMPB      AL,#7                 ; [CPU_] |5987| 
        B         $C$L43,EQ             ; [CPU_] |5987| 
        ; branchcc occurs ; [] |5987| 
	.dwpsn	file "../Source/prod.c",line 5988,column 4,is_stmt,isa 0
;----------------------------------------------------------------------
; 5988 | sprintf(buff, " CH %u", conf_data.dac[l].ch + 1);                      
;----------------------------------------------------------------------
        MOVL      XAR4,#$C$FSL53        ; [CPU_U] |5988| 
        MOVL      *-SP[2],XAR4          ; [CPU_] |5988| 
        MOV       AL,*+XAR2[1]          ; [CPU_] |5988| 
        ADDB      AL,#1                 ; [CPU_] |5988| 
        MOVL      XAR4,XAR3             ; [CPU_] |5988| 
        MOV       *-SP[3],AL            ; [CPU_] |5988| 
$C$DW$248	.dwtag  DW_TAG_TI_branch
	.dwattr $C$DW$248, DW_AT_low_pc(0x00)
	.dwattr $C$DW$248, DW_AT_name("_sprintf")
	.dwattr $C$DW$248, DW_AT_TI_call

        LCR       #_sprintf             ; [CPU_] |5988| 
        ; call occurs [#_sprintf] ; [] |5988| 
	.dwpsn	file "../Source/prod.c",line 5989,column 4,is_stmt,isa 0
;----------------------------------------------------------------------
; 5989 | scia_puts(buff);                                                       
;----------------------------------------------------------------------
        MOVL      XAR4,XAR3             ; [CPU_] |5989| 
$C$DW$249	.dwtag  DW_TAG_TI_branch
	.dwattr $C$DW$249, DW_AT_low_pc(0x00)
	.dwattr $C$DW$249, DW_AT_name("_scia_puts")
	.dwattr $C$DW$249, DW_AT_TI_call

        LCR       #_scia_puts           ; [CPU_] |5989| 
        ; call occurs [#_scia_puts] ; [] |5989| 
$C$L43:    
	.dwpsn	file "../Source/prod.c",line 5992,column 3,is_stmt,isa 0
;----------------------------------------------------------------------
; 5992 | if ( VFD_POSI == conf_data.dac[l].what                                 
; 5993 |                 || VFD_VELO == conf_data.dac[l].what) {                
; 5994 |         sprintf(buff, "    gain:%-.5f, offset:%-.5f\r\n",              
; 5995 |                         conf_data.dac[l].gain, conf_data.dac[l].offset)
;     | ;                                                                      
; 5996 |         scia_puts(buff);                                               
; 5997 | } else {                                                               
;----------------------------------------------------------------------
        MOV       AL,*+XAR2[0]          ; [CPU_] |5992| 
        CMPB      AL,#3                 ; [CPU_] |5992| 
        B         $C$L44,EQ             ; [CPU_] |5992| 
        ; branchcc occurs ; [] |5992| 
        MOV       AL,*+XAR2[0]          ; [CPU_] |5992| 
        CMPB      AL,#4                 ; [CPU_] |5992| 
        B         $C$L44,EQ             ; [CPU_] |5992| 
        ; branchcc occurs ; [] |5992| 
	.dwpsn	file "../Source/prod.c",line 5998,column 4,is_stmt,isa 0
;----------------------------------------------------------------------
; 5998 | scia_puts("\r\n");                                                     
;----------------------------------------------------------------------
        MOVL      XAR4,#$C$FSL11        ; [CPU_U] |5998| 
        B         $C$L45,UNC            ; [CPU_] |5998| 
        ; branch occurs ; [] |5998| 
$C$L44:    
	.dwpsn	file "../Source/prod.c",line 5994,column 4,is_stmt,isa 0
        MOVL      XAR4,#$C$FSL54        ; [CPU_U] |5994| 
        MOVB      XAR0,#8               ; [CPU_] |5994| 
        MOVL      *-SP[2],XAR4          ; [CPU_] |5994| 
        MOVL      ACC,*+XAR2[AR0]       ; [CPU_] |5994| 
        MOVB      XAR0,#10              ; [CPU_] |5994| 
        MOVL      XAR4,XAR3             ; [CPU_] |5994| 
        MOVL      *-SP[4],ACC           ; [CPU_] |5994| 
        MOVL      ACC,*+XAR2[AR0]       ; [CPU_] |5994| 
        MOVL      *-SP[6],ACC           ; [CPU_] |5994| 
$C$DW$250	.dwtag  DW_TAG_TI_branch
	.dwattr $C$DW$250, DW_AT_low_pc(0x00)
	.dwattr $C$DW$250, DW_AT_name("_sprintf")
	.dwattr $C$DW$250, DW_AT_TI_call

        LCR       #_sprintf             ; [CPU_] |5994| 
        ; call occurs [#_sprintf] ; [] |5994| 
	.dwpsn	file "../Source/prod.c",line 5996,column 4,is_stmt,isa 0
        MOVL      XAR4,XAR3             ; [CPU_] |5996| 
$C$L45:    
$C$DW$251	.dwtag  DW_TAG_TI_branch
	.dwattr $C$DW$251, DW_AT_low_pc(0x00)
	.dwattr $C$DW$251, DW_AT_name("_scia_puts")
	.dwattr $C$DW$251, DW_AT_TI_call

        LCR       #_scia_puts           ; [CPU_] |5996| 
        ; call occurs [#_scia_puts] ; [] |5996| 
	.dwpsn	file "../Source/prod.c",line 5974,column 14,is_stmt,isa 0
        ADDB      XAR1,#1               ; [CPU_] |5974| 
        ADDB      XAR2,#12              ; [CPU_] |5974| 
        MOV       AL,AR1                ; [CPU_] |5974| 
        CMPB      AL,#4                 ; [CPU_] |5974| 
        B         $C$L42,LT             ; [CPU_] |5974| 
        ; branchcc occurs ; [] |5974| 
        SUBB      SP,#8                 ; [CPU_U] 
	.dwcfi	cfa_offset, -8
        MOVL      XAR3,*--SP            ; [CPU_] 
	.dwcfi	cfa_offset, -6
	.dwcfi	restore_reg, 11
        MOVL      XAR2,*--SP            ; [CPU_] 
	.dwcfi	cfa_offset, -4
	.dwcfi	restore_reg, 9
        MOVL      XAR1,*--SP            ; [CPU_] 
	.dwcfi	cfa_offset, -2
	.dwcfi	restore_reg, 7
$C$DW$252	.dwtag  DW_TAG_TI_branch
	.dwattr $C$DW$252, DW_AT_low_pc(0x00)
	.dwattr $C$DW$252, DW_AT_TI_return

        LRETR     ; [CPU_] 
        ; return occurs ; [] 
	.dwattr $C$DW$238, DW_AT_TI_end_file("../Source/prod.c")
	.dwattr $C$DW$238, DW_AT_TI_end_line(0x1771)
	.dwattr $C$DW$238, DW_AT_TI_end_column(0x01)
	.dwendentry
	.dwendtag $C$DW$238

	.sect	".text"
	.clink
	.global	_print_channel

$C$DW$253	.dwtag  DW_TAG_subprogram
	.dwattr $C$DW$253, DW_AT_name("print_channel")
	.dwattr $C$DW$253, DW_AT_low_pc(_print_channel)
	.dwattr $C$DW$253, DW_AT_high_pc(0x00)
	.dwattr $C$DW$253, DW_AT_TI_symbol_name("_print_channel")
	.dwattr $C$DW$253, DW_AT_external
	.dwattr $C$DW$253, DW_AT_TI_begin_file("../Source/prod.c")
	.dwattr $C$DW$253, DW_AT_TI_begin_line(0x16be)
	.dwattr $C$DW$253, DW_AT_TI_begin_column(0x06)
	.dwattr $C$DW$253, DW_AT_TI_max_frame_size(-12)
	.dwpsn	file "../Source/prod.c",line 5822,column 31,is_stmt,address _print_channel,isa 0

	.dwfde $C$DW$CIE, _print_channel
$C$DW$254	.dwtag  DW_TAG_variable
	.dwattr $C$DW$254, DW_AT_name("buff")
	.dwattr $C$DW$254, DW_AT_TI_symbol_name("_buff$3")
	.dwattr $C$DW$254, DW_AT_type(*$C$DW$T$379)
	.dwattr $C$DW$254, DW_AT_location[DW_OP_addr _buff$3]

$C$DW$255	.dwtag  DW_TAG_formal_parameter
	.dwattr $C$DW$255, DW_AT_name("ch")
	.dwattr $C$DW$255, DW_AT_TI_symbol_name("_ch")
	.dwattr $C$DW$255, DW_AT_type(*$C$DW$T$36)
	.dwattr $C$DW$255, DW_AT_location[DW_OP_reg0]


;***************************************************************
;* FNAME: _print_channel                FR SIZE:  10           *
;*                                                             *
;* FUNCTION ENVIRONMENT                                        *
;*                                                             *
;* FUNCTION PROPERTIES                                         *
;*                            4 Parameter,  0 Auto,  6 SOE     *
;***************************************************************

_print_channel:
;* AR3   assigned to $O$C1
;* AR1   assigned to $O$C2
;* AR2   assigned to _ch
$C$DW$256	.dwtag  DW_TAG_variable
	.dwattr $C$DW$256, DW_AT_name("ch")
	.dwattr $C$DW$256, DW_AT_TI_symbol_name("_ch")
	.dwattr $C$DW$256, DW_AT_type(*$C$DW$T$296)
	.dwattr $C$DW$256, DW_AT_location[DW_OP_reg8]

	.dwcfi	cfa_offset, -2
	.dwcfi	save_reg_to_mem, 26, 0
        MOVL      *SP++,XAR1            ; [CPU_] 
	.dwcfi	save_reg_to_mem, 7, 2
	.dwcfi	cfa_offset, -4
        MOVL      *SP++,XAR2            ; [CPU_] 
	.dwcfi	save_reg_to_mem, 9, 4
	.dwcfi	cfa_offset, -6
        MOVL      *SP++,XAR3            ; [CPU_] 
	.dwcfi	save_reg_to_mem, 11, 6
	.dwcfi	cfa_offset, -8
        ADDB      SP,#4                 ; [CPU_U] 
	.dwcfi	cfa_offset, -12
;----------------------------------------------------------------------
; 5822 | void print_channel(Uint16 ch) {                                        
; 5823 | static char buff[100];                                                 
;----------------------------------------------------------------------
        MOVZ      AR2,AL                ; [CPU_] |5822| 
	.dwpsn	file "../Source/prod.c",line 5825,column 2,is_stmt,isa 0
;----------------------------------------------------------------------
; 5825 | sprintf(buff, "Channel:            %-i\r\n", ch + 1);                  
;----------------------------------------------------------------------
        MOVL      XAR4,#$C$FSL55        ; [CPU_U] |5825| 
        MOVZ      AR1,AR2               ; [CPU_] |5825| 
        MOVB      AH,#1                 ; [CPU_] |5825| 
        MOVL      XAR3,#_buff$3         ; [CPU_U] |5825| 
        MOVL      *-SP[2],XAR4          ; [CPU_] |5825| 
        ADD       AH,AR1                ; [CPU_] |5825| 
        MOVL      XAR4,XAR3             ; [CPU_] |5825| 
        MOV       *-SP[3],AH            ; [CPU_] |5825| 
$C$DW$257	.dwtag  DW_TAG_TI_branch
	.dwattr $C$DW$257, DW_AT_low_pc(0x00)
	.dwattr $C$DW$257, DW_AT_name("_sprintf")
	.dwattr $C$DW$257, DW_AT_TI_call

        LCR       #_sprintf             ; [CPU_] |5825| 
        ; call occurs [#_sprintf] ; [] |5825| 
	.dwpsn	file "../Source/prod.c",line 5826,column 2,is_stmt,isa 0
;----------------------------------------------------------------------
; 5826 | scia_puts(buff);                                                       
;----------------------------------------------------------------------
        MOVL      XAR4,XAR3             ; [CPU_] |5826| 
$C$DW$258	.dwtag  DW_TAG_TI_branch
	.dwattr $C$DW$258, DW_AT_low_pc(0x00)
	.dwattr $C$DW$258, DW_AT_name("_scia_puts")
	.dwattr $C$DW$258, DW_AT_TI_call

        LCR       #_scia_puts           ; [CPU_] |5826| 
        ; call occurs [#_scia_puts] ; [] |5826| 
	.dwpsn	file "../Source/prod.c",line 5828,column 2,is_stmt,isa 0
;----------------------------------------------------------------------
; 5828 | sprintf(buff, "Boardcal slope:     %-11g\r\n", conf_data.ch[ch].bslope)
;     | ;                                                                      
;----------------------------------------------------------------------
        MOVB      AL,#10                ; [CPU_] |5828| 
        MOV       T,AR1                 ; [CPU_] |5828| 
        MOVL      XAR4,#$C$FSL56        ; [CPU_U] |5828| 
        MPYU      ACC,T,AL              ; [CPU_] |5828| 
        MOVL      XAR1,#_conf_data      ; [CPU_U] |5828| 
        ADDL      XAR1,ACC              ; [CPU_] |5828| 
        MOVB      XAR0,#44              ; [CPU_] |5828| 
        MOVL      *-SP[2],XAR4          ; [CPU_] |5828| 
        MOVL      XAR4,XAR3             ; [CPU_] |5828| 
        MOVL      ACC,*+XAR1[AR0]       ; [CPU_] |5828| 
        MOVL      *-SP[4],ACC           ; [CPU_] |5828| 
$C$DW$259	.dwtag  DW_TAG_TI_branch
	.dwattr $C$DW$259, DW_AT_low_pc(0x00)
	.dwattr $C$DW$259, DW_AT_name("_sprintf")
	.dwattr $C$DW$259, DW_AT_TI_call

        LCR       #_sprintf             ; [CPU_] |5828| 
        ; call occurs [#_sprintf] ; [] |5828| 
	.dwpsn	file "../Source/prod.c",line 5829,column 2,is_stmt,isa 0
;----------------------------------------------------------------------
; 5829 | scia_puts(buff);                                                       
;----------------------------------------------------------------------
        MOVL      XAR4,XAR3             ; [CPU_] |5829| 
$C$DW$260	.dwtag  DW_TAG_TI_branch
	.dwattr $C$DW$260, DW_AT_low_pc(0x00)
	.dwattr $C$DW$260, DW_AT_name("_scia_puts")
	.dwattr $C$DW$260, DW_AT_TI_call

        LCR       #_scia_puts           ; [CPU_] |5829| 
        ; call occurs [#_scia_puts] ; [] |5829| 
	.dwpsn	file "../Source/prod.c",line 5839,column 2,is_stmt,isa 0
;----------------------------------------------------------------------
; 5839 | sprintf(buff, "Current sensor:     %-10i\r\n", conf_data.ch[ch].ci + 1)
;     | ;                                                                      
;----------------------------------------------------------------------
        MOVL      XAR4,#$C$FSL57        ; [CPU_U] |5839| 
        MOVB      XAR0,#42              ; [CPU_] |5839| 
        MOVL      *-SP[2],XAR4          ; [CPU_] |5839| 
        MOVL      XAR4,XAR3             ; [CPU_] |5839| 
        MOV       AL,*+XAR1[AR0]        ; [CPU_] |5839| 
        ADDB      AL,#1                 ; [CPU_] |5839| 
        MOV       *-SP[3],AL            ; [CPU_] |5839| 
$C$DW$261	.dwtag  DW_TAG_TI_branch
	.dwattr $C$DW$261, DW_AT_low_pc(0x00)
	.dwattr $C$DW$261, DW_AT_name("_sprintf")
	.dwattr $C$DW$261, DW_AT_TI_call

        LCR       #_sprintf             ; [CPU_] |5839| 
        ; call occurs [#_sprintf] ; [] |5839| 
	.dwpsn	file "../Source/prod.c",line 5840,column 2,is_stmt,isa 0
;----------------------------------------------------------------------
; 5840 | scia_puts(buff);                                                       
;----------------------------------------------------------------------
        MOVL      XAR4,XAR3             ; [CPU_] |5840| 
$C$DW$262	.dwtag  DW_TAG_TI_branch
	.dwattr $C$DW$262, DW_AT_low_pc(0x00)
	.dwattr $C$DW$262, DW_AT_name("_scia_puts")
	.dwattr $C$DW$262, DW_AT_TI_call

        LCR       #_scia_puts           ; [CPU_] |5840| 
        ; call occurs [#_scia_puts] ; [] |5840| 
	.dwpsn	file "../Source/prod.c",line 5842,column 2,is_stmt,isa 0
;----------------------------------------------------------------------
; 5842 | if (autoid[ch]) {                                                      
;----------------------------------------------------------------------
        MOVZ      AR0,AR2               ; [CPU_] |5842| 
        MOVL      XAR4,#_autoid         ; [CPU_U] |5842| 
        MOV       AL,*+XAR4[AR0]        ; [CPU_] |5842| 
        B         $C$L46,EQ             ; [CPU_] |5842| 
        ; branchcc occurs ; [] |5842| 
	.dwpsn	file "../Source/prod.c",line 5843,column 3,is_stmt,isa 0
;----------------------------------------------------------------------
; 5843 | scia_puts("Auto Id enabled and active.\r\n");                          
;----------------------------------------------------------------------
        MOVL      XAR4,#$C$FSL58        ; [CPU_U] |5843| 
$C$DW$263	.dwtag  DW_TAG_TI_branch
	.dwattr $C$DW$263, DW_AT_low_pc(0x00)
	.dwattr $C$DW$263, DW_AT_name("_scia_puts")
	.dwattr $C$DW$263, DW_AT_TI_call

        LCR       #_scia_puts           ; [CPU_] |5843| 
        ; call occurs [#_scia_puts] ; [] |5843| 
$C$L46:    
        SUBB      SP,#4                 ; [CPU_U] 
	.dwcfi	cfa_offset, -8
        MOVL      XAR3,*--SP            ; [CPU_] 
	.dwcfi	cfa_offset, -6
	.dwcfi	restore_reg, 11
        MOVL      XAR2,*--SP            ; [CPU_] 
	.dwcfi	cfa_offset, -4
	.dwcfi	restore_reg, 9
        MOVL      XAR1,*--SP            ; [CPU_] 
	.dwcfi	cfa_offset, -2
	.dwcfi	restore_reg, 7
$C$DW$264	.dwtag  DW_TAG_TI_branch
	.dwattr $C$DW$264, DW_AT_low_pc(0x00)
	.dwattr $C$DW$264, DW_AT_TI_return

        LRETR     ; [CPU_] 
        ; return occurs ; [] 
	.dwattr $C$DW$253, DW_AT_TI_end_file("../Source/prod.c")
	.dwattr $C$DW$253, DW_AT_TI_end_line(0x16d5)
	.dwattr $C$DW$253, DW_AT_TI_end_column(0x01)
	.dwendentry
	.dwendtag $C$DW$253

	.sect	".text"
	.clink
	.global	_matchTag

$C$DW$265	.dwtag  DW_TAG_subprogram
	.dwattr $C$DW$265, DW_AT_name("matchTag")
	.dwattr $C$DW$265, DW_AT_low_pc(_matchTag)
	.dwattr $C$DW$265, DW_AT_high_pc(0x00)
	.dwattr $C$DW$265, DW_AT_TI_symbol_name("_matchTag")
	.dwattr $C$DW$265, DW_AT_external
	.dwattr $C$DW$265, DW_AT_TI_begin_file("../Source/prod.c")
	.dwattr $C$DW$265, DW_AT_TI_begin_line(0x169a)
	.dwattr $C$DW$265, DW_AT_TI_begin_column(0x06)
	.dwattr $C$DW$265, DW_AT_TI_max_frame_size(-14)
	.dwpsn	file "../Source/prod.c",line 5786,column 26,is_stmt,address _matchTag,isa 0

	.dwfde $C$DW$CIE, _matchTag
$C$DW$266	.dwtag  DW_TAG_formal_parameter
	.dwattr $C$DW$266, DW_AT_name("ch")
	.dwattr $C$DW$266, DW_AT_TI_symbol_name("_ch")
	.dwattr $C$DW$266, DW_AT_type(*$C$DW$T$36)
	.dwattr $C$DW$266, DW_AT_location[DW_OP_reg0]

;----------------------------------------------------------------------
; 5786 | void matchTag(Uint16 ch) {                                             
; 5787 | Uint16 sns;                                                            
; 5788 | unsigned long long tag;                                                
;----------------------------------------------------------------------

;***************************************************************
;* FNAME: _matchTag                     FR SIZE:  12           *
;*                                                             *
;* FUNCTION ENVIRONMENT                                        *
;*                                                             *
;* FUNCTION PROPERTIES                                         *
;*                            4 Parameter,  1 Auto,  6 SOE     *
;***************************************************************

_matchTag:
$C$DW$267	.dwtag  DW_TAG_variable
	.dwattr $C$DW$267, DW_AT_name("ch")
	.dwattr $C$DW$267, DW_AT_TI_symbol_name("_ch")
	.dwattr $C$DW$267, DW_AT_type(*$C$DW$T$296)
	.dwattr $C$DW$267, DW_AT_location[DW_OP_breg20 -5]

;* AR4   assigned to _sns
$C$DW$268	.dwtag  DW_TAG_variable
	.dwattr $C$DW$268, DW_AT_name("sns")
	.dwattr $C$DW$268, DW_AT_TI_symbol_name("_sns")
	.dwattr $C$DW$268, DW_AT_type(*$C$DW$T$36)
	.dwattr $C$DW$268, DW_AT_location[DW_OP_reg12]

;* AR3   assigned to _tag
$C$DW$269	.dwtag  DW_TAG_variable
	.dwattr $C$DW$269, DW_AT_name("tag")
	.dwattr $C$DW$269, DW_AT_TI_symbol_name("_tag")
	.dwattr $C$DW$269, DW_AT_type(*$C$DW$T$15)
	.dwattr $C$DW$269, DW_AT_location[DW_OP_reg10 DW_OP_piece 2 DW_OP_reg14 DW_OP_piece 2]

;* AR1   assigned to $O$K4
;* AR0   assigned to $O$U25
;* AR2   assigned to $O$K6
	.dwcfi	cfa_offset, -2
	.dwcfi	save_reg_to_mem, 26, 0
        MOVL      *SP++,XAR1            ; [CPU_] 
	.dwcfi	save_reg_to_mem, 7, 2
	.dwcfi	cfa_offset, -4
        MOVL      *SP++,XAR2            ; [CPU_] 
	.dwcfi	save_reg_to_mem, 9, 4
	.dwcfi	cfa_offset, -6
        MOVL      *SP++,XAR3            ; [CPU_] 
	.dwcfi	save_reg_to_mem, 11, 6
	.dwcfi	cfa_offset, -8
        ADDB      SP,#6                 ; [CPU_U] 
	.dwcfi	cfa_offset, -14
	.dwpsn	file "../Source/prod.c",line 5790,column 2,is_stmt,isa 0
;----------------------------------------------------------------------
; 5790 | autoid[ch] = 0;                                                        
;----------------------------------------------------------------------
        MOVL      XAR4,#_autoid         ; [CPU_U] |5790| 
	.dwpsn	file "../Source/prod.c",line 5786,column 26,is_stmt,isa 0
        MOV       *-SP[5],AL            ; [CPU_] |5786| 
	.dwpsn	file "../Source/prod.c",line 5790,column 2,is_stmt,isa 0
        MOVL      ACC,XAR4              ; [CPU_] |5790| 
        ADDU      ACC,*-SP[5]           ; [CPU_] |5790| 
        MOVL      XAR1,ACC              ; [CPU_] |5790| 
	.dwpsn	file "../Source/prod.c",line 5792,column 2,is_stmt,isa 0
;----------------------------------------------------------------------
; 5792 | if (conf_data.tagiden == 0 || ch >= CHS_MAX) {                         
;----------------------------------------------------------------------
        MOVB      XAR0,#36              ; [CPU_] |5792| 
        MOVL      XAR2,#_conf_data      ; [CPU_U] |5792| 
	.dwpsn	file "../Source/prod.c",line 5790,column 2,is_stmt,isa 0
        MOV       *+XAR1[0],#0          ; [CPU_] |5790| 
	.dwpsn	file "../Source/prod.c",line 5792,column 2,is_stmt,isa 0
;----------------------------------------------------------------------
; 5793 | return;                         // tagid disabled.                     
;----------------------------------------------------------------------
        MOV       AL,*+XAR2[AR0]        ; [CPU_] |5792| 
        B         $C$L50,EQ             ; [CPU_] |5792| 
        ; branchcc occurs ; [] |5792| 
        MOV       AL,*-SP[5]            ; [CPU_] 
        CMPB      AL,#4                 ; [CPU_] |5792| 
        B         $C$L50,HIS            ; [CPU_] |5792| 
        ; branchcc occurs ; [] |5792| 
	.dwpsn	file "../Source/prod.c",line 5796,column 2,is_stmt,isa 0
;----------------------------------------------------------------------
; 5796 | tag = tagid(ch);                                                       
; 5797 | if ((tag != 0) && (tag != (unsigned long long) -1)) {                  
; 5798 |         // tag exist and no tag read CRC error                         
;----------------------------------------------------------------------
$C$DW$270	.dwtag  DW_TAG_TI_branch
	.dwattr $C$DW$270, DW_AT_low_pc(0x00)
	.dwattr $C$DW$270, DW_AT_name("_tagid")
	.dwattr $C$DW$270, DW_AT_TI_call

        LCR       #_tagid               ; [CPU_] |5796| 
        ; call occurs [#_tagid] ; [] |5796| 
        MOVB      XAR6,#0               ; [CPU_] |5796| 
        MOVL      XAR3,ACC              ; [CPU_] |5796| 
        MOVL      *-SP[4],XAR6          ; [CPU_] |5796| 
        MOV       *-SP[2],#0            ; [CPU_] |5796| 
        MOV       *-SP[1],#0            ; [CPU_] |5796| 
$C$DW$271	.dwtag  DW_TAG_TI_branch
	.dwattr $C$DW$271, DW_AT_low_pc(0x00)
	.dwattr $C$DW$271, DW_AT_name("ULL$$CMP")
	.dwattr $C$DW$271, DW_AT_TI_call

        FFC       XAR7,#ULL$$CMP        ; [CPU_] |5796| 
        ; call occurs [#ULL$$CMP] ; [] |5796| 
        CMPB      AL,#0                 ; [CPU_] |5796| 
        B         $C$L50,EQ             ; [CPU_] |5796| 
        ; branchcc occurs ; [] |5796| 
        MOVB      ACC,#0                ; [CPU_] |5796| 
        SUBB      ACC,#1                ; [CPU_] |5796| 
        MOVL      *-SP[4],ACC           ; [CPU_] |5796| 
        MOVL      *-SP[2],ACC           ; [CPU_] |5796| 
        MOVL      ACC,XAR3              ; [CPU_] |5796| 
$C$DW$272	.dwtag  DW_TAG_TI_branch
	.dwattr $C$DW$272, DW_AT_low_pc(0x00)
	.dwattr $C$DW$272, DW_AT_name("ULL$$CMP")
	.dwattr $C$DW$272, DW_AT_TI_call

        FFC       XAR7,#ULL$$CMP        ; [CPU_] |5796| 
        ; call occurs [#ULL$$CMP] ; [] |5796| 
        CMPB      AL,#0                 ; [CPU_] |5796| 
        B         $C$L50,EQ             ; [CPU_] |5796| 
        ; branchcc occurs ; [] |5796| 
	.dwpsn	file "../Source/prod.c",line 5799,column 3,is_stmt,isa 0
;----------------------------------------------------------------------
; 5799 | tagwasthere[ch] = 0;            // tag chip detected                   
;----------------------------------------------------------------------
        MOVZ      AR0,*-SP[5]           ; [CPU_] |5799| 
        MOVL      XAR4,#_tagwasthere    ; [CPU_U] |5799| 
        MOV       *+XAR4[AR0],#0        ; [CPU_] |5799| 
        MOVL      XAR0,XAR2             ; [CPU_] 
        MOVB      XAR6,#19              ; [CPU_] 
	.dwpsn	file "../Source/prod.c",line 5801,column 8,is_stmt,isa 0
;----------------------------------------------------------------------
; 5801 | for (sns = 0; sns < SENSPCH; sns++) {                                  
; 5803 |         if (conf_data.sensor[sns].method == MD_UNCALED) {              
;----------------------------------------------------------------------
        MOVB      XAR4,#0               ; [CPU_] |5801| 
        ADDB      XAR0,#114             ; [CPU_] 
$C$L47:    
	.dwpsn	file "../Source/prod.c",line 5804,column 5,is_stmt,isa 0
;----------------------------------------------------------------------
; 5804 | continue;                       // not calibrated                      
; 5807 | if (tag != conf_data.sensor[sns].tagid) {                              
;----------------------------------------------------------------------
        MOV       AL,*+XAR0[4]          ; [CPU_] |5804| 
        B         $C$L48,EQ             ; [CPU_] |5804| 
        ; branchcc occurs ; [] |5804| 
	.dwpsn	file "../Source/prod.c",line 5808,column 5,is_stmt,isa 0
;----------------------------------------------------------------------
; 5808 | continue;                       // doesn't match, skip                 
; 5811 | // we have a matched sensor tagid here                                 
;----------------------------------------------------------------------
        MOVL      ACC,*+XAR0[0]         ; [CPU_] |5808| 
        MOVL      XAR7,*+XAR0[2]        ; [CPU_] |5808| 
        MOVL      *-SP[4],ACC           ; [CPU_] |5808| 
        MOVL      ACC,XAR3              ; [CPU_] |5808| 
        MOVL      *-SP[2],XAR7          ; [CPU_] |5808| 
$C$DW$273	.dwtag  DW_TAG_TI_branch
	.dwattr $C$DW$273, DW_AT_low_pc(0x00)
	.dwattr $C$DW$273, DW_AT_name("ULL$$CMP")
	.dwattr $C$DW$273, DW_AT_TI_call

        FFC       XAR7,#ULL$$CMP        ; [CPU_] |5808| 
        ; call occurs [#ULL$$CMP] ; [] |5808| 
        CMPB      AL,#0                 ; [CPU_] |5808| 
        B         $C$L49,EQ             ; [CPU_] |5808| 
        ; branchcc occurs ; [] |5808| 
$C$L48:    
        MOVL      ACC,XAR0              ; [CPU_] 
	.dwpsn	file "../Source/prod.c",line 5801,column 17,is_stmt,isa 0
        ADDB      ACC,#152              ; [CPU_] |5801| 
        MOVL      XAR0,ACC              ; [CPU_] |5801| 
        ADDB      XAR4,#1               ; [CPU_] |5801| 
        BANZ      $C$L47,AR6--          ; [CPU_] |5801| 
        ; branchcc occurs ; [] |5801| 
        B         $C$L50,UNC            ; [CPU_] |5801| 
        ; branch occurs ; [] |5801| 
$C$L49:    
	.dwpsn	file "../Source/prod.c",line 5812,column 4,is_stmt,isa 0
;----------------------------------------------------------------------
; 5812 | autoid[ch] = 1;                                                        
;----------------------------------------------------------------------
        MOVB      *+XAR1[0],#1,UNC      ; [CPU_] |5812| 
	.dwpsn	file "../Source/prod.c",line 5813,column 4,is_stmt,isa 0
;----------------------------------------------------------------------
; 5813 | conf_data.ch[ch].ci = sns;                                             
; 5815 | break;                          // stop searching                      
;----------------------------------------------------------------------
        MOVB      AL,#10                ; [CPU_] |5813| 
        MOV       T,*-SP[5]             ; [CPU_] |5813| 
        MPYU      ACC,T,AL              ; [CPU_] |5813| 
        ADDL      ACC,XAR2              ; [CPU_] |5813| 
        MOVL      XAR5,ACC              ; [CPU_] |5813| 
        MOVB      XAR0,#42              ; [CPU_] |5813| 
        MOV       *+XAR5[AR0],AR4       ; [CPU_] |5813| 
$C$L50:    
        SUBB      SP,#6                 ; [CPU_U] 
	.dwcfi	cfa_offset, -8
        MOVL      XAR3,*--SP            ; [CPU_] 
	.dwcfi	cfa_offset, -6
	.dwcfi	restore_reg, 11
        MOVL      XAR2,*--SP            ; [CPU_] 
	.dwcfi	cfa_offset, -4
	.dwcfi	restore_reg, 9
        MOVL      XAR1,*--SP            ; [CPU_] 
	.dwcfi	cfa_offset, -2
	.dwcfi	restore_reg, 7
$C$DW$274	.dwtag  DW_TAG_TI_branch
	.dwattr $C$DW$274, DW_AT_low_pc(0x00)
	.dwattr $C$DW$274, DW_AT_TI_return

        LRETR     ; [CPU_] 
        ; return occurs ; [] 
	.dwattr $C$DW$265, DW_AT_TI_end_file("../Source/prod.c")
	.dwattr $C$DW$265, DW_AT_TI_end_line(0x16ba)
	.dwattr $C$DW$265, DW_AT_TI_end_column(0x01)
	.dwendentry
	.dwendtag $C$DW$265

	.sect	".text"
	.clink
	.global	_main

$C$DW$275	.dwtag  DW_TAG_subprogram
	.dwattr $C$DW$275, DW_AT_name("main")
	.dwattr $C$DW$275, DW_AT_low_pc(_main)
	.dwattr $C$DW$275, DW_AT_high_pc(0x00)
	.dwattr $C$DW$275, DW_AT_TI_symbol_name("_main")
	.dwattr $C$DW$275, DW_AT_external
	.dwattr $C$DW$275, DW_AT_TI_begin_file("../Source/prod.c")
	.dwattr $C$DW$275, DW_AT_TI_begin_line(0x7e)
	.dwattr $C$DW$275, DW_AT_TI_begin_column(0x06)
	.dwattr $C$DW$275, DW_AT_TI_max_frame_size(-160)
	.dwpsn	file "../Source/prod.c",line 126,column 17,is_stmt,address _main,isa 0

	.dwfde $C$DW$CIE, _main
$C$DW$276	.dwtag  DW_TAG_variable
	.dwattr $C$DW$276, DW_AT_name("buff")
	.dwattr $C$DW$276, DW_AT_TI_symbol_name("_buff$1")
	.dwattr $C$DW$276, DW_AT_type(*$C$DW$T$373)
	.dwattr $C$DW$276, DW_AT_location[DW_OP_addr _buff$1]

$C$DW$277	.dwtag  DW_TAG_variable
	.dwattr $C$DW$277, DW_AT_name("cmdbuff")
	.dwattr $C$DW$277, DW_AT_TI_symbol_name("_cmdbuff$2")
	.dwattr $C$DW$277, DW_AT_type(*$C$DW$T$373)
	.dwattr $C$DW$277, DW_AT_location[DW_OP_addr _cmdbuff$2]

;----------------------------------------------------------------------
; 126 | void main(void) {                                                      
; 127 | int i, j, k;                            // general purpose indics      
; 129 | double version;                 // for firmware version print          
; 131 | static char buff[1024];         // output buffer                       
; 133 | static char cmdbuff[1024];              // buffer for getting serial co
;     | mmand                                                                  
; 134 | Uint16 cmdlen;                  // the length of the command           
; 136 | adccnt_t* cntp;                 // point to ad7738 count data          
; 137 | adcwt_t* wtp;                           // point to ad7738 load data   
; 139 | Uint16 ch;                              // channel number              
; 140 | Uint16 ss;                              // sensor number               
; 141 | Uint16 pt;                              // point number                
; 143 | Uint16 tagch = 0;                       // channel number for autoid   
; 145 | char unsaved = 0;                       // change to setup not saved   
; 147 | Uint16 slen;                            // string lenght               
; 149 | double scale;                           // input float value           
; 151 | Uint16 flash_ret;                       // return value of flash access
; 152 | double tempvalue;                       // temperature value in F      
; 154 | double volt[3];                 // input value in mv/v                 
; 155 | long long dsum[2];                      // read count for input value  
; 156 | Uint16 dacc[3];                 // dac out count                       
; 157 | int daccbm = 0; // bitmap for DAC calibration, lower 2 bits, each for a
;     |  point                                                                 
; 159 | volatile long sampcnt;                          // sample count for cal
;     | ibration reading                                                       
; 161 | char cmethod;                           // buffer for calibration metho
;     | d code                                                                 
; 163 | Uint16 line;                            // vfd diplay line             
; 165 | int bincmdresult;                       // binary command process resul
;     | t code                                                                 
; 167 | int ds_en = 0;                  // enabled for data streamming         
; 168 | int ds_stop = 0;                        // stop flag for data streammin
;     | g                                                                      
; 169 | //Uint16 ds_dn = 1;             // dataset number of package for data s
;     | treamming.                                                             
; 170 | Uint16 ds_dn = 60;              // dataset number of package for data s
;     | treamming.                                                             
; 171 | Uint16 ds_dec = 1;                      // decimantion number for data
;     | stream.                                                                
; 172 | Uint16 ds_bm = 0x0f;                    // bitmap for data streamming. 
; 173 | Uint16 ds_sn = 0;                       // data packet serial number   
; 174 | Uint16 ds_ct = 0;                       // count of dataset in the curr
;     | ent packet                                                             
; 176 | Uint32 temp32;                                                         
; 177 | float ftemp;                                                           
; 178 | long templg;                                                           
; 179 | Uint16 temp16;                                                         
; 180 | int tempint;                                                           
; 181 | double tempft;                                                         
; 183 | Uint16 *intp;                                                          
; 185 | const char *ccp;                                                       
; 187 | #ifdef SDHCCARD                                                        
; 188 | FATFS *fs;                              // pointer to fatfs            
; 190 | FRESULT res;// Fatfs reseult code                                      
; 191 | FIL *fp;// pointer to file object                                      
; 193 | Uint32 fsize;                                                          
; 195 | char sd_write;// should write to SD card                               
; 196 | char sd_close;// file need to be closed                                
; 197 | Uint32 sd_cnt;                                                         
; 199 | FILINFO Finfo;                                                         
; 200 | DIR dir;// Directory object                                            
; 201 | long p1;                                                               
; 202 | UINT s1, s2;                                                           
; 204 | rtc.year = 2010;                                                       
; 205 | rtc.month = 8;                                                         
; 206 | rtc.mday = 27;                                                         
; 207 | rtc.hour = 12;                                                         
; 208 | rtc.min = 0;                                                           
; 209 | rtc.sec = 0;                                                           
; 210 | #endif                                                                 
; 212 | // KS - 2014-02-11                                                     
; 213 | //DownloadFlag = 0;     // removed for release                         
; 215 | // initialize the system control registers and XINTF                   
;----------------------------------------------------------------------

;***************************************************************
;* FNAME: _main                         FR SIZE: 158           *
;*                                                             *
;* FUNCTION ENVIRONMENT                                        *
;*                                                             *
;* FUNCTION PROPERTIES                                         *
;*                           10 Parameter, 141 Auto,  6 SOE     *
;***************************************************************

_main:
;* AL    assigned to $O$C22
;* AL    assigned to $O$C23
;* AL    assigned to $O$C24
;* AL    assigned to $O$C26
;* AR7   assigned to $O$C27
;* AR5   assigned to $O$C28
;* AL    assigned to $O$C29
;* AR4   assigned to $O$C30
;* AL    assigned to $O$C31
;* PL    assigned to $O$C32
;* AR6   assigned to $O$C33
;* AR1   assigned to $O$C34
;* AL    assigned to $O$C35
;* AR5   assigned to $O$C36
;* AL    assigned to $O$C37
;* AL    assigned to $O$C38
;* AL    assigned to $O$C39
;* AL    assigned to $O$C41
;* AR4   assigned to $O$C42
;* AR5   assigned to $O$C43
;* AR1   assigned to $O$C44
;* PL    assigned to $O$C45
;* AR6   assigned to $O$C46
;* AL    assigned to $O$C47
;* AR1   assigned to $O$C49
;* AL    assigned to $O$C50
;* AR1   assigned to $O$C52
;* AL    assigned to $O$C54
;* AL    assigned to $O$C55
;* AL    assigned to $O$C57
;* AR1   assigned to $O$C58
;* AH    assigned to $O$C59
;* AL    assigned to $O$C60
;* AL    assigned to $O$C61
;* AR5   assigned to $O$C62
;* AR4   assigned to $O$C63
;* AL    assigned to $O$C65
;* AL    assigned to $O$C67
;* AL    assigned to $O$C68
;* AL    assigned to $O$C69
;* AL    assigned to $O$C70
;* AL    assigned to $O$C71
;* AL    assigned to $O$C73
;* AL    assigned to $O$C75
;* AL    assigned to $O$C77
;* AH    assigned to $O$C78
;* AL    assigned to $O$C79
;* AR1   assigned to $O$C80
;* AR1   assigned to $O$C81
;* AL    assigned to $O$C82
;* AR1   assigned to $O$C83
;* AR1   assigned to $O$C86
;* AL    assigned to $O$C88
;* AR6   assigned to $O$C89
;* AR1   assigned to $O$C90
;* AL    assigned to $O$C92
;* AR5   assigned to $O$C93
;* AL    assigned to $O$C94
;* AH    assigned to $O$C95
;* AR7   assigned to $O$C97
;* AR5   assigned to $O$C98
;* AR4   assigned to $O$C99
;* AL    assigned to $O$C100
;* AR3   assigned to $O$C101
;* AL    assigned to $O$C102
;* AR1   assigned to $O$C104
;* AR1   assigned to $O$C105
;* AR5   assigned to $O$C107
;* AR1   assigned to $O$C108
;* AR1   assigned to $O$C109
;* AR1   assigned to $O$C110
;* AR1   assigned to $O$C111
;* AH    assigned to $O$C112
;* AH    assigned to $O$C113
;* AR1   assigned to $O$C114
;* AL    assigned to $O$C115
;* AR1   assigned to $O$C116
;* AR5   assigned to $O$C118
;* AR1   assigned to $O$C119
;* AL    assigned to $O$C120
;* AL    assigned to $O$C121
;* AR1   assigned to $O$C122
;* AR1   assigned to $O$C124
;* AR7   assigned to $O$C125
;* AL    assigned to $O$C126
;* AR4   assigned to $O$C127
;* AR1   assigned to $O$C128
;* AL    assigned to $O$C129
;* AR1   assigned to $O$C130
;* AR1   assigned to $O$C131
;* AR1   assigned to $O$C134
;* AR1   assigned to $O$C136
;* AR1   assigned to $O$C137
;* AL    assigned to $O$C139
;* AR1   assigned to $O$C140
;* AR1   assigned to $O$C141
;* AR4   assigned to $O$C142
;* AR5   assigned to $O$C143
;* AR5   assigned to $O$C144
;* AR0   assigned to $O$W1
;* AR7   assigned to $O$U189
;* AR5   assigned to $O$U193
;* AR1   assigned to $O$U348
;* AR1   assigned to $O$U377
;* AR1   assigned to $O$U584
;* AR1   assigned to $O$U712
;* AR1   assigned to $O$U810
;* AR1   assigned to $O$U847
;* AR5   assigned to $O$U863
;* AL    assigned to $O$U1022
;* AR1   assigned to $O$U1000
;* AR1   assigned to $O$U1091
;* AR1   assigned to $O$U990
;* AR6   assigned to $O$U1292
;* AR1   assigned to $O$U1318
;* AR7   assigned to $O$U1554
;* XT    assigned to $O$U1581
;* PL    assigned to $O$U1582
;* AR5   assigned to $O$U1606
;* PL    assigned to $O$U1611
;* PL    assigned to $O$U1618
;* AR5   assigned to $O$U1620
;* AR5   assigned to $O$U1621
;* AR5   assigned to $O$U1635
;* XT    assigned to $O$U1677
;* PL    assigned to $O$U1678
;* AR6   assigned to $O$P21
;* AR4   assigned to $O$L42
;* AR3   assigned to $O$L54
;* AR3   assigned to $O$L57
;* AR3   assigned to $O$L111
$C$DW$278	.dwtag  DW_TAG_variable
	.dwattr $C$DW$278, DW_AT_name("counter")
	.dwattr $C$DW$278, DW_AT_TI_symbol_name("_counter")
	.dwattr $C$DW$278, DW_AT_type(*$C$DW$T$10)
	.dwattr $C$DW$278, DW_AT_location[DW_OP_breg20 -57]

$C$DW$279	.dwtag  DW_TAG_variable
	.dwattr $C$DW$279, DW_AT_name("ccp")
	.dwattr $C$DW$279, DW_AT_TI_symbol_name("_ccp")
	.dwattr $C$DW$279, DW_AT_type(*$C$DW$T$177)
	.dwattr $C$DW$279, DW_AT_location[DW_OP_breg20 -112]

$C$DW$280	.dwtag  DW_TAG_variable
	.dwattr $C$DW$280, DW_AT_name("tempft")
	.dwattr $C$DW$280, DW_AT_TI_symbol_name("_tempft")
	.dwattr $C$DW$280, DW_AT_type(*$C$DW$T$17)
	.dwattr $C$DW$280, DW_AT_location[DW_OP_breg20 -12]

$C$DW$281	.dwtag  DW_TAG_variable
	.dwattr $C$DW$281, DW_AT_name("templg")
	.dwattr $C$DW$281, DW_AT_TI_symbol_name("_templg")
	.dwattr $C$DW$281, DW_AT_type(*$C$DW$T$12)
	.dwattr $C$DW$281, DW_AT_location[DW_OP_breg20 -14]

$C$DW$282	.dwtag  DW_TAG_variable
	.dwattr $C$DW$282, DW_AT_name("ds_ct")
	.dwattr $C$DW$282, DW_AT_TI_symbol_name("_ds_ct")
	.dwattr $C$DW$282, DW_AT_type(*$C$DW$T$36)
	.dwattr $C$DW$282, DW_AT_location[DW_OP_breg20 -55]

$C$DW$283	.dwtag  DW_TAG_variable
	.dwattr $C$DW$283, DW_AT_name("ds_sn")
	.dwattr $C$DW$283, DW_AT_TI_symbol_name("_ds_sn")
	.dwattr $C$DW$283, DW_AT_type(*$C$DW$T$36)
	.dwattr $C$DW$283, DW_AT_location[DW_OP_breg20 -58]

$C$DW$284	.dwtag  DW_TAG_variable
	.dwattr $C$DW$284, DW_AT_name("ds_bm")
	.dwattr $C$DW$284, DW_AT_TI_symbol_name("_ds_bm")
	.dwattr $C$DW$284, DW_AT_type(*$C$DW$T$36)
	.dwattr $C$DW$284, DW_AT_location[DW_OP_breg20 -59]

$C$DW$285	.dwtag  DW_TAG_variable
	.dwattr $C$DW$285, DW_AT_name("ds_dec")
	.dwattr $C$DW$285, DW_AT_TI_symbol_name("_ds_dec")
	.dwattr $C$DW$285, DW_AT_type(*$C$DW$T$36)
	.dwattr $C$DW$285, DW_AT_location[DW_OP_breg20 -60]

$C$DW$286	.dwtag  DW_TAG_variable
	.dwattr $C$DW$286, DW_AT_name("ds_dn")
	.dwattr $C$DW$286, DW_AT_TI_symbol_name("_ds_dn")
	.dwattr $C$DW$286, DW_AT_type(*$C$DW$T$36)
	.dwattr $C$DW$286, DW_AT_location[DW_OP_breg20 -61]

$C$DW$287	.dwtag  DW_TAG_variable
	.dwattr $C$DW$287, DW_AT_name("ds_stop")
	.dwattr $C$DW$287, DW_AT_TI_symbol_name("_ds_stop")
	.dwattr $C$DW$287, DW_AT_type(*$C$DW$T$10)
	.dwattr $C$DW$287, DW_AT_location[DW_OP_breg20 -62]

$C$DW$288	.dwtag  DW_TAG_variable
	.dwattr $C$DW$288, DW_AT_name("ds_en")
	.dwattr $C$DW$288, DW_AT_TI_symbol_name("_ds_en")
	.dwattr $C$DW$288, DW_AT_type(*$C$DW$T$10)
	.dwattr $C$DW$288, DW_AT_location[DW_OP_breg20 -63]

$C$DW$289	.dwtag  DW_TAG_variable
	.dwattr $C$DW$289, DW_AT_name("bincmdresult")
	.dwattr $C$DW$289, DW_AT_TI_symbol_name("_bincmdresult")
	.dwattr $C$DW$289, DW_AT_type(*$C$DW$T$10)
	.dwattr $C$DW$289, DW_AT_location[DW_OP_breg20 -55]

$C$DW$290	.dwtag  DW_TAG_variable
	.dwattr $C$DW$290, DW_AT_name("line")
	.dwattr $C$DW$290, DW_AT_TI_symbol_name("_line")
	.dwattr $C$DW$290, DW_AT_type(*$C$DW$T$36)
	.dwattr $C$DW$290, DW_AT_location[DW_OP_breg20 -64]

$C$DW$291	.dwtag  DW_TAG_variable
	.dwattr $C$DW$291, DW_AT_name("daccbm")
	.dwattr $C$DW$291, DW_AT_TI_symbol_name("_daccbm")
	.dwattr $C$DW$291, DW_AT_type(*$C$DW$T$10)
	.dwattr $C$DW$291, DW_AT_location[DW_OP_breg20 -65]

$C$DW$292	.dwtag  DW_TAG_variable
	.dwattr $C$DW$292, DW_AT_name("tempvalue")
	.dwattr $C$DW$292, DW_AT_TI_symbol_name("_tempvalue")
	.dwattr $C$DW$292, DW_AT_type(*$C$DW$T$17)
	.dwattr $C$DW$292, DW_AT_location[DW_OP_breg20 -114]

$C$DW$293	.dwtag  DW_TAG_variable
	.dwattr $C$DW$293, DW_AT_name("scale")
	.dwattr $C$DW$293, DW_AT_TI_symbol_name("_scale")
	.dwattr $C$DW$293, DW_AT_type(*$C$DW$T$17)
	.dwattr $C$DW$293, DW_AT_location[DW_OP_breg20 -16]

$C$DW$294	.dwtag  DW_TAG_variable
	.dwattr $C$DW$294, DW_AT_name("unsaved")
	.dwattr $C$DW$294, DW_AT_TI_symbol_name("_unsaved")
	.dwattr $C$DW$294, DW_AT_type(*$C$DW$T$5)
	.dwattr $C$DW$294, DW_AT_location[DW_OP_breg20 -56]

$C$DW$295	.dwtag  DW_TAG_variable
	.dwattr $C$DW$295, DW_AT_name("tagch")
	.dwattr $C$DW$295, DW_AT_TI_symbol_name("_tagch")
	.dwattr $C$DW$295, DW_AT_type(*$C$DW$T$36)
	.dwattr $C$DW$295, DW_AT_location[DW_OP_breg20 -151]

$C$DW$296	.dwtag  DW_TAG_variable
	.dwattr $C$DW$296, DW_AT_name("ss")
	.dwattr $C$DW$296, DW_AT_TI_symbol_name("_ss")
	.dwattr $C$DW$296, DW_AT_type(*$C$DW$T$36)
	.dwattr $C$DW$296, DW_AT_location[DW_OP_breg20 -66]

$C$DW$297	.dwtag  DW_TAG_variable
	.dwattr $C$DW$297, DW_AT_name("ch")
	.dwattr $C$DW$297, DW_AT_TI_symbol_name("_ch")
	.dwattr $C$DW$297, DW_AT_type(*$C$DW$T$36)
	.dwattr $C$DW$297, DW_AT_location[DW_OP_breg20 -67]

$C$DW$298	.dwtag  DW_TAG_variable
	.dwattr $C$DW$298, DW_AT_name("version")
	.dwattr $C$DW$298, DW_AT_TI_symbol_name("_version")
	.dwattr $C$DW$298, DW_AT_type(*$C$DW$T$17)
	.dwattr $C$DW$298, DW_AT_location[DW_OP_breg20 -18]

;* AR4   assigned to $O$S18
;* AR4   assigned to $O$S17
;* AL    assigned to $O$R16
;* AL    assigned to $O$R15
;* AL    assigned to $O$R14
;* AR3   assigned to $O$R13
;* AR6   assigned to $O$R12
;* AL    assigned to $O$R11
;* AL    assigned to $O$R10
;* AL    assigned to $O$R9
;* AL    assigned to $O$R8
;* AL    assigned to $O$R7
;* AL    assigned to $O$R5
;* AL    assigned to $O$R4
;* AR6   assigned to $O$S3
;* AR5   assigned to $O$S2
;* AR4   assigned to $O$S1
;* AR4   assigned to $O$U31
;* AR7   assigned to $O$U31
;* AR4   assigned to $O$U31
;* AR7   assigned to $O$U31
;* AR5   assigned to $O$U35
;* AR5   assigned to $O$U35
;* AR1   assigned to $O$K116
;* AR4   assigned to $O$K116
;* AR4   assigned to $O$K116
;* AR6   assigned to $O$K116
;* AR5   assigned to $O$K116
;* AR4   assigned to $O$K116
;* AR5   assigned to $O$K116
;* AR7   assigned to $O$K116
;* AR4   assigned to $O$K116
;* AR4   assigned to $O$K116
;* AR4   assigned to $O$K116
;* AR4   assigned to $O$K116
;* AR7   assigned to $O$K116
;* AR7   assigned to $O$K116
;* AR5   assigned to $O$K116
;* AR4   assigned to $O$K116
;* AR4   assigned to $O$K116
;* AR4   assigned to $O$K116
;* AR7   assigned to $O$K116
;* AR1   assigned to $O$K116
;* AR1   assigned to $O$K116
;* AR1   assigned to $O$K116
;* AR1   assigned to $O$K116
;* AR1   assigned to $O$K116
;* AR1   assigned to $O$K116
;* AR7   assigned to $O$K116
;* AR5   assigned to $O$K116
;* AR4   assigned to $O$K116
;* AR4   assigned to $O$K116
;* AR4   assigned to $O$K116
;* AR7   assigned to $O$K116
;* AR5   assigned to $O$U276
;* AR1   assigned to $O$U276
;* AR5   assigned to $O$U276
;* AR5   assigned to $O$U276
;* AR5   assigned to $O$U276
;* AR4   assigned to $O$U276
;* AR7   assigned to $O$U276
;* AR7   assigned to $O$U276
;* AR7   assigned to $O$U276
;* AR4   assigned to $O$U276
;* AR4   assigned to $O$U276
;* AR4   assigned to $O$U276
;* AR4   assigned to $O$U276
;* AR5   assigned to $O$U276
;* AR4   assigned to $O$U276
;* AR1   assigned to $O$U276
;* AR4   assigned to $O$U276
;* AR4   assigned to $O$U276
;* AR4   assigned to $O$U276
;* AR4   assigned to $O$U276
;* AR4   assigned to $O$U276
;* AR4   assigned to $O$U276
;* AR4   assigned to $O$U276
;* AR5   assigned to $O$U276
;* AR5   assigned to $O$U276
;* AR1   assigned to $O$U276
;* AR4   assigned to $O$U276
;* AR1   assigned to $O$U276
;* AR4   assigned to $O$U276
;* AR4   assigned to $O$U276
;* AR4   assigned to $O$U276
;* AR4   assigned to $O$U276
;* AR4   assigned to $O$U276
;* AR5   assigned to $O$U276
;* AR4   assigned to $O$U276
;* AR1   assigned to $O$U276
;* AR5   assigned to $O$K25
;* AR1   assigned to $O$K25
;* AR1   assigned to $O$K25
;* AR1   assigned to $O$K25
;* AR1   assigned to $O$U443
;* AR1   assigned to $O$U443
;* AR1   assigned to $O$U443
;* AR1   assigned to $O$U422
;* AR1   assigned to $O$U422
;* AR1   assigned to $O$U422
;* AR1   assigned to $O$U422
;* AR1   assigned to $O$U422
;* AR5   assigned to $O$U422
;* AR1   assigned to $O$U314
;* AR1   assigned to $O$U605
;* AR1   assigned to $O$U605
;* AR1   assigned to $O$U650
;* AR1   assigned to $O$U650
;* AR4   assigned to $O$K838
;* AR4   assigned to $O$K838
;* AR1   assigned to $O$K838
;* AR4   assigned to $O$K838
;* AR1   assigned to $O$K838
;* AR1   assigned to $O$K838
;* AR1   assigned to $O$K838
;* AR1   assigned to $O$K838
;* AR5   assigned to $O$K838
;* AR5   assigned to $O$K838
;* AR1   assigned to $O$K838
;* AR1   assigned to $O$U892
;* AR1   assigned to $O$U892
;* AR1   assigned to $O$U915
;* AR3   assigned to $O$U915
;* AR1   assigned to $O$U915
;* AR6   assigned to $O$U872
;* AL    assigned to $O$U872
;* AR1   assigned to $O$U941
;* AR1   assigned to $O$U941
;* AR1   assigned to $O$U1021
;* AR7   assigned to $O$U1021
;* AR5   assigned to $O$U1021
;* AR5   assigned to $O$U1021
;* AR5   assigned to $O$U1021
;* AR7   assigned to $O$U1021
;* AR7   assigned to $O$U1021
;* AR7   assigned to $O$U1021
;* AR7   assigned to $O$U1021
;* AR4   assigned to $O$U1021
;* AR4   assigned to $O$U1021
;* AR7   assigned to $O$U1021
;* AR7   assigned to $O$U1021
;* AR1   assigned to $O$K331
;* AR7   assigned to $O$U1157
;* AR7   assigned to $O$U1157
;* AR7   assigned to $O$U1157
;* AR7   assigned to $O$U1157
;* AR4   assigned to $O$U1159
;* AR4   assigned to $O$U1159
;* AR4   assigned to $O$U1159
;* AR4   assigned to $O$U1159
;* AR3   assigned to $O$U1193
;* AR1   assigned to $O$U1193
;* AR1   assigned to $O$U1193
;* AR1   assigned to $O$U1199
;* AR4   assigned to $O$U1211
;* AR4   assigned to $O$U1208
;* AR7   assigned to $O$U1208
;* PL    assigned to $O$U1208
;* AR7   assigned to $O$U1208
;* AR4   assigned to $O$U1208
;* AR5   assigned to $O$U1268
;* AR4   assigned to $O$U1268
;* AR5   assigned to $O$U1347
;* AR5   assigned to $O$U1347
;* AR4   assigned to $O$U1343
;* AR4   assigned to $O$U1343
;* AR5   assigned to $O$U1402
;* AR5   assigned to $O$U1402
;* PL    assigned to $O$U1408
;* AR1   assigned to $O$U1408
;* AR6   assigned to $O$U1409
;* AR6   assigned to $O$U1409
;* AR5   assigned to $O$U1445
;* AR5   assigned to $O$U1445
;* PL    assigned to $O$U1448
;* AR1   assigned to $O$U1448
;* AR6   assigned to $O$U1449
;* AR7   assigned to $O$U1449
;* AR5   assigned to $O$U1487
;* AR5   assigned to $O$U1487
;* AR5   assigned to $O$U1522
;* AR5   assigned to $O$U1522
;* AR4   assigned to $O$U1557
;* AR1   assigned to $O$U1557
;* AR5   assigned to $O$U1557
;* AR5   assigned to $O$U1557
;* AR4   assigned to $O$U1646
;* AR4   assigned to $O$U1646
;* AR4   assigned to $O$U1646
;* AR4   assigned to $O$U1655
;* PL    assigned to _res
$C$DW$299	.dwtag  DW_TAG_variable
	.dwattr $C$DW$299, DW_AT_name("res")
	.dwattr $C$DW$299, DW_AT_TI_symbol_name("_res")
	.dwattr $C$DW$299, DW_AT_type(*$C$DW$T$36)
	.dwattr $C$DW$299, DW_AT_location[DW_OP_reg2]

;* PL    assigned to _res
$C$DW$300	.dwtag  DW_TAG_variable
	.dwattr $C$DW$300, DW_AT_name("res")
	.dwattr $C$DW$300, DW_AT_TI_symbol_name("_res")
	.dwattr $C$DW$300, DW_AT_type(*$C$DW$T$36)
	.dwattr $C$DW$300, DW_AT_location[DW_OP_reg2]

;* PL    assigned to _res
$C$DW$301	.dwtag  DW_TAG_variable
	.dwattr $C$DW$301, DW_AT_name("res")
	.dwattr $C$DW$301, DW_AT_TI_symbol_name("_res")
	.dwattr $C$DW$301, DW_AT_type(*$C$DW$T$36)
	.dwattr $C$DW$301, DW_AT_location[DW_OP_reg2]

;* PL    assigned to _res
$C$DW$302	.dwtag  DW_TAG_variable
	.dwattr $C$DW$302, DW_AT_name("res")
	.dwattr $C$DW$302, DW_AT_TI_symbol_name("_res")
	.dwattr $C$DW$302, DW_AT_type(*$C$DW$T$36)
	.dwattr $C$DW$302, DW_AT_location[DW_OP_reg2]

;* PL    assigned to _res
$C$DW$303	.dwtag  DW_TAG_variable
	.dwattr $C$DW$303, DW_AT_name("res")
	.dwattr $C$DW$303, DW_AT_TI_symbol_name("_res")
	.dwattr $C$DW$303, DW_AT_type(*$C$DW$T$36)
	.dwattr $C$DW$303, DW_AT_location[DW_OP_reg2]

;* PL    assigned to _res
$C$DW$304	.dwtag  DW_TAG_variable
	.dwattr $C$DW$304, DW_AT_name("res")
	.dwattr $C$DW$304, DW_AT_TI_symbol_name("_res")
	.dwattr $C$DW$304, DW_AT_type(*$C$DW$T$36)
	.dwattr $C$DW$304, DW_AT_location[DW_OP_reg2]

;* PL    assigned to _res
$C$DW$305	.dwtag  DW_TAG_variable
	.dwattr $C$DW$305, DW_AT_name("res")
	.dwattr $C$DW$305, DW_AT_TI_symbol_name("_res")
	.dwattr $C$DW$305, DW_AT_type(*$C$DW$T$36)
	.dwattr $C$DW$305, DW_AT_location[DW_OP_reg2]

;* PL    assigned to _res
$C$DW$306	.dwtag  DW_TAG_variable
	.dwattr $C$DW$306, DW_AT_name("res")
	.dwattr $C$DW$306, DW_AT_TI_symbol_name("_res")
	.dwattr $C$DW$306, DW_AT_type(*$C$DW$T$36)
	.dwattr $C$DW$306, DW_AT_location[DW_OP_reg2]

;* AR3   assigned to _intp
$C$DW$307	.dwtag  DW_TAG_variable
	.dwattr $C$DW$307, DW_AT_name("intp")
	.dwattr $C$DW$307, DW_AT_TI_symbol_name("_intp")
	.dwattr $C$DW$307, DW_AT_type(*$C$DW$T$305)
	.dwattr $C$DW$307, DW_AT_location[DW_OP_reg10]

;* AR3   assigned to _intp
$C$DW$308	.dwtag  DW_TAG_variable
	.dwattr $C$DW$308, DW_AT_name("intp")
	.dwattr $C$DW$308, DW_AT_TI_symbol_name("_intp")
	.dwattr $C$DW$308, DW_AT_type(*$C$DW$T$305)
	.dwattr $C$DW$308, DW_AT_location[DW_OP_reg10]

;* AR6   assigned to _intp
$C$DW$309	.dwtag  DW_TAG_variable
	.dwattr $C$DW$309, DW_AT_name("intp")
	.dwattr $C$DW$309, DW_AT_TI_symbol_name("_intp")
	.dwattr $C$DW$309, DW_AT_type(*$C$DW$T$305)
	.dwattr $C$DW$309, DW_AT_location[DW_OP_reg16]

;* AR5   assigned to _intp
$C$DW$310	.dwtag  DW_TAG_variable
	.dwattr $C$DW$310, DW_AT_name("intp")
	.dwattr $C$DW$310, DW_AT_TI_symbol_name("_intp")
	.dwattr $C$DW$310, DW_AT_type(*$C$DW$T$305)
	.dwattr $C$DW$310, DW_AT_location[DW_OP_reg14]

;* AR5   assigned to _intp
$C$DW$311	.dwtag  DW_TAG_variable
	.dwattr $C$DW$311, DW_AT_name("intp")
	.dwattr $C$DW$311, DW_AT_TI_symbol_name("_intp")
	.dwattr $C$DW$311, DW_AT_type(*$C$DW$T$305)
	.dwattr $C$DW$311, DW_AT_location[DW_OP_reg14]

;* AR0   assigned to _intp
$C$DW$312	.dwtag  DW_TAG_variable
	.dwattr $C$DW$312, DW_AT_name("intp")
	.dwattr $C$DW$312, DW_AT_TI_symbol_name("_intp")
	.dwattr $C$DW$312, DW_AT_type(*$C$DW$T$305)
	.dwattr $C$DW$312, DW_AT_location[DW_OP_reg4]

;* AR0   assigned to _intp
$C$DW$313	.dwtag  DW_TAG_variable
	.dwattr $C$DW$313, DW_AT_name("intp")
	.dwattr $C$DW$313, DW_AT_TI_symbol_name("_intp")
	.dwattr $C$DW$313, DW_AT_type(*$C$DW$T$305)
	.dwattr $C$DW$313, DW_AT_location[DW_OP_reg4]

;* AR0   assigned to _intp
$C$DW$314	.dwtag  DW_TAG_variable
	.dwattr $C$DW$314, DW_AT_name("intp")
	.dwattr $C$DW$314, DW_AT_TI_symbol_name("_intp")
	.dwattr $C$DW$314, DW_AT_type(*$C$DW$T$305)
	.dwattr $C$DW$314, DW_AT_location[DW_OP_reg4]

;* AR0   assigned to _intp
$C$DW$315	.dwtag  DW_TAG_variable
	.dwattr $C$DW$315, DW_AT_name("intp")
	.dwattr $C$DW$315, DW_AT_TI_symbol_name("_intp")
	.dwattr $C$DW$315, DW_AT_type(*$C$DW$T$305)
	.dwattr $C$DW$315, DW_AT_location[DW_OP_reg4]

;* AR4   assigned to _intp
$C$DW$316	.dwtag  DW_TAG_variable
	.dwattr $C$DW$316, DW_AT_name("intp")
	.dwattr $C$DW$316, DW_AT_TI_symbol_name("_intp")
	.dwattr $C$DW$316, DW_AT_type(*$C$DW$T$305)
	.dwattr $C$DW$316, DW_AT_location[DW_OP_reg12]

;* AR0   assigned to _intp
$C$DW$317	.dwtag  DW_TAG_variable
	.dwattr $C$DW$317, DW_AT_name("intp")
	.dwattr $C$DW$317, DW_AT_TI_symbol_name("_intp")
	.dwattr $C$DW$317, DW_AT_type(*$C$DW$T$305)
	.dwattr $C$DW$317, DW_AT_location[DW_OP_reg4]

;* AR7   assigned to _intp
$C$DW$318	.dwtag  DW_TAG_variable
	.dwattr $C$DW$318, DW_AT_name("intp")
	.dwattr $C$DW$318, DW_AT_TI_symbol_name("_intp")
	.dwattr $C$DW$318, DW_AT_type(*$C$DW$T$305)
	.dwattr $C$DW$318, DW_AT_location[DW_OP_reg18]

;* AR4   assigned to _intp
$C$DW$319	.dwtag  DW_TAG_variable
	.dwattr $C$DW$319, DW_AT_name("intp")
	.dwattr $C$DW$319, DW_AT_TI_symbol_name("_intp")
	.dwattr $C$DW$319, DW_AT_type(*$C$DW$T$305)
	.dwattr $C$DW$319, DW_AT_location[DW_OP_reg12]

;* AR1   assigned to _intp
$C$DW$320	.dwtag  DW_TAG_variable
	.dwattr $C$DW$320, DW_AT_name("intp")
	.dwattr $C$DW$320, DW_AT_TI_symbol_name("_intp")
	.dwattr $C$DW$320, DW_AT_type(*$C$DW$T$305)
	.dwattr $C$DW$320, DW_AT_location[DW_OP_reg6]

;* AR1   assigned to _intp
$C$DW$321	.dwtag  DW_TAG_variable
	.dwattr $C$DW$321, DW_AT_name("intp")
	.dwattr $C$DW$321, DW_AT_TI_symbol_name("_intp")
	.dwattr $C$DW$321, DW_AT_type(*$C$DW$T$305)
	.dwattr $C$DW$321, DW_AT_location[DW_OP_reg6]

;* AR1   assigned to _intp
$C$DW$322	.dwtag  DW_TAG_variable
	.dwattr $C$DW$322, DW_AT_name("intp")
	.dwattr $C$DW$322, DW_AT_TI_symbol_name("_intp")
	.dwattr $C$DW$322, DW_AT_type(*$C$DW$T$305)
	.dwattr $C$DW$322, DW_AT_location[DW_OP_reg6]

;* AR1   assigned to _intp
$C$DW$323	.dwtag  DW_TAG_variable
	.dwattr $C$DW$323, DW_AT_name("intp")
	.dwattr $C$DW$323, DW_AT_TI_symbol_name("_intp")
	.dwattr $C$DW$323, DW_AT_type(*$C$DW$T$305)
	.dwattr $C$DW$323, DW_AT_location[DW_OP_reg6]

;* AR7   assigned to _intp
$C$DW$324	.dwtag  DW_TAG_variable
	.dwattr $C$DW$324, DW_AT_name("intp")
	.dwattr $C$DW$324, DW_AT_TI_symbol_name("_intp")
	.dwattr $C$DW$324, DW_AT_type(*$C$DW$T$305)
	.dwattr $C$DW$324, DW_AT_location[DW_OP_reg18]

;* AR1   assigned to _intp
$C$DW$325	.dwtag  DW_TAG_variable
	.dwattr $C$DW$325, DW_AT_name("intp")
	.dwattr $C$DW$325, DW_AT_TI_symbol_name("_intp")
	.dwattr $C$DW$325, DW_AT_type(*$C$DW$T$305)
	.dwattr $C$DW$325, DW_AT_location[DW_OP_reg6]

;* AR7   assigned to _intp
$C$DW$326	.dwtag  DW_TAG_variable
	.dwattr $C$DW$326, DW_AT_name("intp")
	.dwattr $C$DW$326, DW_AT_TI_symbol_name("_intp")
	.dwattr $C$DW$326, DW_AT_type(*$C$DW$T$305)
	.dwattr $C$DW$326, DW_AT_location[DW_OP_reg18]

;* AR5   assigned to _intp
$C$DW$327	.dwtag  DW_TAG_variable
	.dwattr $C$DW$327, DW_AT_name("intp")
	.dwattr $C$DW$327, DW_AT_TI_symbol_name("_intp")
	.dwattr $C$DW$327, DW_AT_type(*$C$DW$T$305)
	.dwattr $C$DW$327, DW_AT_location[DW_OP_reg14]

;* AR4   assigned to _intp
$C$DW$328	.dwtag  DW_TAG_variable
	.dwattr $C$DW$328, DW_AT_name("intp")
	.dwattr $C$DW$328, DW_AT_TI_symbol_name("_intp")
	.dwattr $C$DW$328, DW_AT_type(*$C$DW$T$305)
	.dwattr $C$DW$328, DW_AT_location[DW_OP_reg12]

;* AR4   assigned to _intp
$C$DW$329	.dwtag  DW_TAG_variable
	.dwattr $C$DW$329, DW_AT_name("intp")
	.dwattr $C$DW$329, DW_AT_TI_symbol_name("_intp")
	.dwattr $C$DW$329, DW_AT_type(*$C$DW$T$305)
	.dwattr $C$DW$329, DW_AT_location[DW_OP_reg12]

;* AR4   assigned to _intp
$C$DW$330	.dwtag  DW_TAG_variable
	.dwattr $C$DW$330, DW_AT_name("intp")
	.dwattr $C$DW$330, DW_AT_TI_symbol_name("_intp")
	.dwattr $C$DW$330, DW_AT_type(*$C$DW$T$305)
	.dwattr $C$DW$330, DW_AT_location[DW_OP_reg12]

;* AR5   assigned to _intp
$C$DW$331	.dwtag  DW_TAG_variable
	.dwattr $C$DW$331, DW_AT_name("intp")
	.dwattr $C$DW$331, DW_AT_TI_symbol_name("_intp")
	.dwattr $C$DW$331, DW_AT_type(*$C$DW$T$305)
	.dwattr $C$DW$331, DW_AT_location[DW_OP_reg14]

;* AR5   assigned to _intp
$C$DW$332	.dwtag  DW_TAG_variable
	.dwattr $C$DW$332, DW_AT_name("intp")
	.dwattr $C$DW$332, DW_AT_TI_symbol_name("_intp")
	.dwattr $C$DW$332, DW_AT_type(*$C$DW$T$305)
	.dwattr $C$DW$332, DW_AT_location[DW_OP_reg14]

;* AR5   assigned to _intp
$C$DW$333	.dwtag  DW_TAG_variable
	.dwattr $C$DW$333, DW_AT_name("intp")
	.dwattr $C$DW$333, DW_AT_TI_symbol_name("_intp")
	.dwattr $C$DW$333, DW_AT_type(*$C$DW$T$305)
	.dwattr $C$DW$333, DW_AT_location[DW_OP_reg14]

;* AR5   assigned to _intp
$C$DW$334	.dwtag  DW_TAG_variable
	.dwattr $C$DW$334, DW_AT_name("intp")
	.dwattr $C$DW$334, DW_AT_TI_symbol_name("_intp")
	.dwattr $C$DW$334, DW_AT_type(*$C$DW$T$305)
	.dwattr $C$DW$334, DW_AT_location[DW_OP_reg14]

;* AR7   assigned to _intp
$C$DW$335	.dwtag  DW_TAG_variable
	.dwattr $C$DW$335, DW_AT_name("intp")
	.dwattr $C$DW$335, DW_AT_TI_symbol_name("_intp")
	.dwattr $C$DW$335, DW_AT_type(*$C$DW$T$305)
	.dwattr $C$DW$335, DW_AT_location[DW_OP_reg18]

;* AR5   assigned to _intp
$C$DW$336	.dwtag  DW_TAG_variable
	.dwattr $C$DW$336, DW_AT_name("intp")
	.dwattr $C$DW$336, DW_AT_TI_symbol_name("_intp")
	.dwattr $C$DW$336, DW_AT_type(*$C$DW$T$305)
	.dwattr $C$DW$336, DW_AT_location[DW_OP_reg14]

;* AR5   assigned to _intp
$C$DW$337	.dwtag  DW_TAG_variable
	.dwattr $C$DW$337, DW_AT_name("intp")
	.dwattr $C$DW$337, DW_AT_TI_symbol_name("_intp")
	.dwattr $C$DW$337, DW_AT_type(*$C$DW$T$305)
	.dwattr $C$DW$337, DW_AT_location[DW_OP_reg14]

;* AR5   assigned to _intp
$C$DW$338	.dwtag  DW_TAG_variable
	.dwattr $C$DW$338, DW_AT_name("intp")
	.dwattr $C$DW$338, DW_AT_TI_symbol_name("_intp")
	.dwattr $C$DW$338, DW_AT_type(*$C$DW$T$305)
	.dwattr $C$DW$338, DW_AT_location[DW_OP_reg14]

;* AR5   assigned to _intp
$C$DW$339	.dwtag  DW_TAG_variable
	.dwattr $C$DW$339, DW_AT_name("intp")
	.dwattr $C$DW$339, DW_AT_TI_symbol_name("_intp")
	.dwattr $C$DW$339, DW_AT_type(*$C$DW$T$305)
	.dwattr $C$DW$339, DW_AT_location[DW_OP_reg14]

;* AR5   assigned to _intp
$C$DW$340	.dwtag  DW_TAG_variable
	.dwattr $C$DW$340, DW_AT_name("intp")
	.dwattr $C$DW$340, DW_AT_TI_symbol_name("_intp")
	.dwattr $C$DW$340, DW_AT_type(*$C$DW$T$305)
	.dwattr $C$DW$340, DW_AT_location[DW_OP_reg14]

;* AR5   assigned to _intp
$C$DW$341	.dwtag  DW_TAG_variable
	.dwattr $C$DW$341, DW_AT_name("intp")
	.dwattr $C$DW$341, DW_AT_TI_symbol_name("_intp")
	.dwattr $C$DW$341, DW_AT_type(*$C$DW$T$305)
	.dwattr $C$DW$341, DW_AT_location[DW_OP_reg14]

;* AR5   assigned to _intp
$C$DW$342	.dwtag  DW_TAG_variable
	.dwattr $C$DW$342, DW_AT_name("intp")
	.dwattr $C$DW$342, DW_AT_TI_symbol_name("_intp")
	.dwattr $C$DW$342, DW_AT_type(*$C$DW$T$305)
	.dwattr $C$DW$342, DW_AT_location[DW_OP_reg14]

;* AR7   assigned to _intp
$C$DW$343	.dwtag  DW_TAG_variable
	.dwattr $C$DW$343, DW_AT_name("intp")
	.dwattr $C$DW$343, DW_AT_TI_symbol_name("_intp")
	.dwattr $C$DW$343, DW_AT_type(*$C$DW$T$305)
	.dwattr $C$DW$343, DW_AT_location[DW_OP_reg18]

;* AR5   assigned to _intp
$C$DW$344	.dwtag  DW_TAG_variable
	.dwattr $C$DW$344, DW_AT_name("intp")
	.dwattr $C$DW$344, DW_AT_TI_symbol_name("_intp")
	.dwattr $C$DW$344, DW_AT_type(*$C$DW$T$305)
	.dwattr $C$DW$344, DW_AT_location[DW_OP_reg14]

;* AR7   assigned to _intp
$C$DW$345	.dwtag  DW_TAG_variable
	.dwattr $C$DW$345, DW_AT_name("intp")
	.dwattr $C$DW$345, DW_AT_TI_symbol_name("_intp")
	.dwattr $C$DW$345, DW_AT_type(*$C$DW$T$305)
	.dwattr $C$DW$345, DW_AT_location[DW_OP_reg18]

;* AR6   assigned to _intp
$C$DW$346	.dwtag  DW_TAG_variable
	.dwattr $C$DW$346, DW_AT_name("intp")
	.dwattr $C$DW$346, DW_AT_TI_symbol_name("_intp")
	.dwattr $C$DW$346, DW_AT_type(*$C$DW$T$305)
	.dwattr $C$DW$346, DW_AT_location[DW_OP_reg16]

;* AR5   assigned to _intp
$C$DW$347	.dwtag  DW_TAG_variable
	.dwattr $C$DW$347, DW_AT_name("intp")
	.dwattr $C$DW$347, DW_AT_TI_symbol_name("_intp")
	.dwattr $C$DW$347, DW_AT_type(*$C$DW$T$305)
	.dwattr $C$DW$347, DW_AT_location[DW_OP_reg14]

;* AR5   assigned to _intp
$C$DW$348	.dwtag  DW_TAG_variable
	.dwattr $C$DW$348, DW_AT_name("intp")
	.dwattr $C$DW$348, DW_AT_TI_symbol_name("_intp")
	.dwattr $C$DW$348, DW_AT_type(*$C$DW$T$305)
	.dwattr $C$DW$348, DW_AT_location[DW_OP_reg14]

;* AR5   assigned to _intp
$C$DW$349	.dwtag  DW_TAG_variable
	.dwattr $C$DW$349, DW_AT_name("intp")
	.dwattr $C$DW$349, DW_AT_TI_symbol_name("_intp")
	.dwattr $C$DW$349, DW_AT_type(*$C$DW$T$305)
	.dwattr $C$DW$349, DW_AT_location[DW_OP_reg14]

;* AR5   assigned to _intp
$C$DW$350	.dwtag  DW_TAG_variable
	.dwattr $C$DW$350, DW_AT_name("intp")
	.dwattr $C$DW$350, DW_AT_TI_symbol_name("_intp")
	.dwattr $C$DW$350, DW_AT_type(*$C$DW$T$305)
	.dwattr $C$DW$350, DW_AT_location[DW_OP_reg14]

;* AR7   assigned to _intp
$C$DW$351	.dwtag  DW_TAG_variable
	.dwattr $C$DW$351, DW_AT_name("intp")
	.dwattr $C$DW$351, DW_AT_TI_symbol_name("_intp")
	.dwattr $C$DW$351, DW_AT_type(*$C$DW$T$305)
	.dwattr $C$DW$351, DW_AT_location[DW_OP_reg18]

;* AR6   assigned to _intp
$C$DW$352	.dwtag  DW_TAG_variable
	.dwattr $C$DW$352, DW_AT_name("intp")
	.dwattr $C$DW$352, DW_AT_TI_symbol_name("_intp")
	.dwattr $C$DW$352, DW_AT_type(*$C$DW$T$305)
	.dwattr $C$DW$352, DW_AT_location[DW_OP_reg16]

;* AR7   assigned to _intp
$C$DW$353	.dwtag  DW_TAG_variable
	.dwattr $C$DW$353, DW_AT_name("intp")
	.dwattr $C$DW$353, DW_AT_TI_symbol_name("_intp")
	.dwattr $C$DW$353, DW_AT_type(*$C$DW$T$305)
	.dwattr $C$DW$353, DW_AT_location[DW_OP_reg18]

;* AR7   assigned to _intp
$C$DW$354	.dwtag  DW_TAG_variable
	.dwattr $C$DW$354, DW_AT_name("intp")
	.dwattr $C$DW$354, DW_AT_TI_symbol_name("_intp")
	.dwattr $C$DW$354, DW_AT_type(*$C$DW$T$305)
	.dwattr $C$DW$354, DW_AT_location[DW_OP_reg18]

;* AR5   assigned to _intp
$C$DW$355	.dwtag  DW_TAG_variable
	.dwattr $C$DW$355, DW_AT_name("intp")
	.dwattr $C$DW$355, DW_AT_TI_symbol_name("_intp")
	.dwattr $C$DW$355, DW_AT_type(*$C$DW$T$305)
	.dwattr $C$DW$355, DW_AT_location[DW_OP_reg14]

;* AR5   assigned to _intp
$C$DW$356	.dwtag  DW_TAG_variable
	.dwattr $C$DW$356, DW_AT_name("intp")
	.dwattr $C$DW$356, DW_AT_TI_symbol_name("_intp")
	.dwattr $C$DW$356, DW_AT_type(*$C$DW$T$305)
	.dwattr $C$DW$356, DW_AT_location[DW_OP_reg14]

;* AR4   assigned to _intp
$C$DW$357	.dwtag  DW_TAG_variable
	.dwattr $C$DW$357, DW_AT_name("intp")
	.dwattr $C$DW$357, DW_AT_TI_symbol_name("_intp")
	.dwattr $C$DW$357, DW_AT_type(*$C$DW$T$305)
	.dwattr $C$DW$357, DW_AT_location[DW_OP_reg12]

;* AR4   assigned to _intp
$C$DW$358	.dwtag  DW_TAG_variable
	.dwattr $C$DW$358, DW_AT_name("intp")
	.dwattr $C$DW$358, DW_AT_TI_symbol_name("_intp")
	.dwattr $C$DW$358, DW_AT_type(*$C$DW$T$305)
	.dwattr $C$DW$358, DW_AT_location[DW_OP_reg12]

;* AR5   assigned to _intp
$C$DW$359	.dwtag  DW_TAG_variable
	.dwattr $C$DW$359, DW_AT_name("intp")
	.dwattr $C$DW$359, DW_AT_TI_symbol_name("_intp")
	.dwattr $C$DW$359, DW_AT_type(*$C$DW$T$305)
	.dwattr $C$DW$359, DW_AT_location[DW_OP_reg14]

;* AR7   assigned to _intp
$C$DW$360	.dwtag  DW_TAG_variable
	.dwattr $C$DW$360, DW_AT_name("intp")
	.dwattr $C$DW$360, DW_AT_TI_symbol_name("_intp")
	.dwattr $C$DW$360, DW_AT_type(*$C$DW$T$305)
	.dwattr $C$DW$360, DW_AT_location[DW_OP_reg18]

;* AR7   assigned to _intp
$C$DW$361	.dwtag  DW_TAG_variable
	.dwattr $C$DW$361, DW_AT_name("intp")
	.dwattr $C$DW$361, DW_AT_TI_symbol_name("_intp")
	.dwattr $C$DW$361, DW_AT_type(*$C$DW$T$305)
	.dwattr $C$DW$361, DW_AT_location[DW_OP_reg18]

;* AR6   assigned to _intp
$C$DW$362	.dwtag  DW_TAG_variable
	.dwattr $C$DW$362, DW_AT_name("intp")
	.dwattr $C$DW$362, DW_AT_TI_symbol_name("_intp")
	.dwattr $C$DW$362, DW_AT_type(*$C$DW$T$305)
	.dwattr $C$DW$362, DW_AT_location[DW_OP_reg16]

;* AR6   assigned to _intp
$C$DW$363	.dwtag  DW_TAG_variable
	.dwattr $C$DW$363, DW_AT_name("intp")
	.dwattr $C$DW$363, DW_AT_TI_symbol_name("_intp")
	.dwattr $C$DW$363, DW_AT_type(*$C$DW$T$305)
	.dwattr $C$DW$363, DW_AT_location[DW_OP_reg16]

;* AR6   assigned to _intp
$C$DW$364	.dwtag  DW_TAG_variable
	.dwattr $C$DW$364, DW_AT_name("intp")
	.dwattr $C$DW$364, DW_AT_TI_symbol_name("_intp")
	.dwattr $C$DW$364, DW_AT_type(*$C$DW$T$305)
	.dwattr $C$DW$364, DW_AT_location[DW_OP_reg16]

;* AR6   assigned to _intp
$C$DW$365	.dwtag  DW_TAG_variable
	.dwattr $C$DW$365, DW_AT_name("intp")
	.dwattr $C$DW$365, DW_AT_TI_symbol_name("_intp")
	.dwattr $C$DW$365, DW_AT_type(*$C$DW$T$305)
	.dwattr $C$DW$365, DW_AT_location[DW_OP_reg16]

;* AR6   assigned to _intp
$C$DW$366	.dwtag  DW_TAG_variable
	.dwattr $C$DW$366, DW_AT_name("intp")
	.dwattr $C$DW$366, DW_AT_TI_symbol_name("_intp")
	.dwattr $C$DW$366, DW_AT_type(*$C$DW$T$305)
	.dwattr $C$DW$366, DW_AT_location[DW_OP_reg16]

;* AR5   assigned to _intp
$C$DW$367	.dwtag  DW_TAG_variable
	.dwattr $C$DW$367, DW_AT_name("intp")
	.dwattr $C$DW$367, DW_AT_TI_symbol_name("_intp")
	.dwattr $C$DW$367, DW_AT_type(*$C$DW$T$305)
	.dwattr $C$DW$367, DW_AT_location[DW_OP_reg14]

;* AR7   assigned to _intp
$C$DW$368	.dwtag  DW_TAG_variable
	.dwattr $C$DW$368, DW_AT_name("intp")
	.dwattr $C$DW$368, DW_AT_TI_symbol_name("_intp")
	.dwattr $C$DW$368, DW_AT_type(*$C$DW$T$305)
	.dwattr $C$DW$368, DW_AT_location[DW_OP_reg18]

;* AR4   assigned to _intp
$C$DW$369	.dwtag  DW_TAG_variable
	.dwattr $C$DW$369, DW_AT_name("intp")
	.dwattr $C$DW$369, DW_AT_TI_symbol_name("_intp")
	.dwattr $C$DW$369, DW_AT_type(*$C$DW$T$305)
	.dwattr $C$DW$369, DW_AT_location[DW_OP_reg12]

;* AR4   assigned to _intp
$C$DW$370	.dwtag  DW_TAG_variable
	.dwattr $C$DW$370, DW_AT_name("intp")
	.dwattr $C$DW$370, DW_AT_TI_symbol_name("_intp")
	.dwattr $C$DW$370, DW_AT_type(*$C$DW$T$305)
	.dwattr $C$DW$370, DW_AT_location[DW_OP_reg12]

;* AL    assigned to _tempint
$C$DW$371	.dwtag  DW_TAG_variable
	.dwattr $C$DW$371, DW_AT_name("tempint")
	.dwattr $C$DW$371, DW_AT_TI_symbol_name("_tempint")
	.dwattr $C$DW$371, DW_AT_type(*$C$DW$T$10)
	.dwattr $C$DW$371, DW_AT_location[DW_OP_reg0]

;* AR1   assigned to _tempint
$C$DW$372	.dwtag  DW_TAG_variable
	.dwattr $C$DW$372, DW_AT_name("tempint")
	.dwattr $C$DW$372, DW_AT_TI_symbol_name("_tempint")
	.dwattr $C$DW$372, DW_AT_type(*$C$DW$T$10)
	.dwattr $C$DW$372, DW_AT_location[DW_OP_reg6]

;* AR3   assigned to _temp16
$C$DW$373	.dwtag  DW_TAG_variable
	.dwattr $C$DW$373, DW_AT_name("temp16")
	.dwattr $C$DW$373, DW_AT_TI_symbol_name("_temp16")
	.dwattr $C$DW$373, DW_AT_type(*$C$DW$T$36)
	.dwattr $C$DW$373, DW_AT_location[DW_OP_reg10]

$C$DW$374	.dwtag  DW_TAG_variable
	.dwattr $C$DW$374, DW_AT_name("temp16")
	.dwattr $C$DW$374, DW_AT_TI_symbol_name("_temp16")
	.dwattr $C$DW$374, DW_AT_type(*$C$DW$T$36)
	.dwattr $C$DW$374, DW_AT_location[DW_OP_breg20 -68]

$C$DW$375	.dwtag  DW_TAG_variable
	.dwattr $C$DW$375, DW_AT_name("temp32")
	.dwattr $C$DW$375, DW_AT_TI_symbol_name("_temp32")
	.dwattr $C$DW$375, DW_AT_type(*$C$DW$T$90)
	.dwattr $C$DW$375, DW_AT_location[DW_OP_breg20 -72]

;* AL    assigned to _temp32
$C$DW$376	.dwtag  DW_TAG_variable
	.dwattr $C$DW$376, DW_AT_name("temp32")
	.dwattr $C$DW$376, DW_AT_TI_symbol_name("_temp32")
	.dwattr $C$DW$376, DW_AT_type(*$C$DW$T$90)
	.dwattr $C$DW$376, DW_AT_location[DW_OP_reg0]

;* AR1   assigned to _cmethod
$C$DW$377	.dwtag  DW_TAG_variable
	.dwattr $C$DW$377, DW_AT_name("cmethod")
	.dwattr $C$DW$377, DW_AT_TI_symbol_name("_cmethod")
	.dwattr $C$DW$377, DW_AT_type(*$C$DW$T$5)
	.dwattr $C$DW$377, DW_AT_location[DW_OP_reg6]

$C$DW$378	.dwtag  DW_TAG_variable
	.dwattr $C$DW$378, DW_AT_name("cmethod")
	.dwattr $C$DW$378, DW_AT_TI_symbol_name("_cmethod")
	.dwattr $C$DW$378, DW_AT_type(*$C$DW$T$5)
	.dwattr $C$DW$378, DW_AT_location[DW_OP_breg20 -55]

;* AL    assigned to _flash_ret
$C$DW$379	.dwtag  DW_TAG_variable
	.dwattr $C$DW$379, DW_AT_name("flash_ret")
	.dwattr $C$DW$379, DW_AT_TI_symbol_name("_flash_ret")
	.dwattr $C$DW$379, DW_AT_type(*$C$DW$T$36)
	.dwattr $C$DW$379, DW_AT_location[DW_OP_reg0]

;* AR1   assigned to _flash_ret
$C$DW$380	.dwtag  DW_TAG_variable
	.dwattr $C$DW$380, DW_AT_name("flash_ret")
	.dwattr $C$DW$380, DW_AT_TI_symbol_name("_flash_ret")
	.dwattr $C$DW$380, DW_AT_type(*$C$DW$T$36)
	.dwattr $C$DW$380, DW_AT_location[DW_OP_reg6]

;* AL    assigned to _flash_ret
$C$DW$381	.dwtag  DW_TAG_variable
	.dwattr $C$DW$381, DW_AT_name("flash_ret")
	.dwattr $C$DW$381, DW_AT_TI_symbol_name("_flash_ret")
	.dwattr $C$DW$381, DW_AT_type(*$C$DW$T$36)
	.dwattr $C$DW$381, DW_AT_location[DW_OP_reg0]

;* AR1   assigned to _flash_ret
$C$DW$382	.dwtag  DW_TAG_variable
	.dwattr $C$DW$382, DW_AT_name("flash_ret")
	.dwattr $C$DW$382, DW_AT_TI_symbol_name("_flash_ret")
	.dwattr $C$DW$382, DW_AT_type(*$C$DW$T$36)
	.dwattr $C$DW$382, DW_AT_location[DW_OP_reg6]

;* AR6   assigned to _slen
$C$DW$383	.dwtag  DW_TAG_variable
	.dwattr $C$DW$383, DW_AT_name("slen")
	.dwattr $C$DW$383, DW_AT_TI_symbol_name("_slen")
	.dwattr $C$DW$383, DW_AT_type(*$C$DW$T$36)
	.dwattr $C$DW$383, DW_AT_location[DW_OP_reg16]

;* AL    assigned to _slen
$C$DW$384	.dwtag  DW_TAG_variable
	.dwattr $C$DW$384, DW_AT_name("slen")
	.dwattr $C$DW$384, DW_AT_TI_symbol_name("_slen")
	.dwattr $C$DW$384, DW_AT_type(*$C$DW$T$36)
	.dwattr $C$DW$384, DW_AT_location[DW_OP_reg0]

;* AR6   assigned to _slen
$C$DW$385	.dwtag  DW_TAG_variable
	.dwattr $C$DW$385, DW_AT_name("slen")
	.dwattr $C$DW$385, DW_AT_TI_symbol_name("_slen")
	.dwattr $C$DW$385, DW_AT_type(*$C$DW$T$36)
	.dwattr $C$DW$385, DW_AT_location[DW_OP_reg16]

;* AR6   assigned to _slen
$C$DW$386	.dwtag  DW_TAG_variable
	.dwattr $C$DW$386, DW_AT_name("slen")
	.dwattr $C$DW$386, DW_AT_TI_symbol_name("_slen")
	.dwattr $C$DW$386, DW_AT_type(*$C$DW$T$36)
	.dwattr $C$DW$386, DW_AT_location[DW_OP_reg16]

;* AL    assigned to _slen
$C$DW$387	.dwtag  DW_TAG_variable
	.dwattr $C$DW$387, DW_AT_name("slen")
	.dwattr $C$DW$387, DW_AT_TI_symbol_name("_slen")
	.dwattr $C$DW$387, DW_AT_type(*$C$DW$T$36)
	.dwattr $C$DW$387, DW_AT_location[DW_OP_reg0]

;* AL    assigned to _slen
$C$DW$388	.dwtag  DW_TAG_variable
	.dwattr $C$DW$388, DW_AT_name("slen")
	.dwattr $C$DW$388, DW_AT_TI_symbol_name("_slen")
	.dwattr $C$DW$388, DW_AT_type(*$C$DW$T$36)
	.dwattr $C$DW$388, DW_AT_location[DW_OP_reg0]

;* AL    assigned to _pt
$C$DW$389	.dwtag  DW_TAG_variable
	.dwattr $C$DW$389, DW_AT_name("pt")
	.dwattr $C$DW$389, DW_AT_TI_symbol_name("_pt")
	.dwattr $C$DW$389, DW_AT_type(*$C$DW$T$36)
	.dwattr $C$DW$389, DW_AT_location[DW_OP_reg0]

;* AL    assigned to _pt
$C$DW$390	.dwtag  DW_TAG_variable
	.dwattr $C$DW$390, DW_AT_name("pt")
	.dwattr $C$DW$390, DW_AT_TI_symbol_name("_pt")
	.dwattr $C$DW$390, DW_AT_type(*$C$DW$T$36)
	.dwattr $C$DW$390, DW_AT_location[DW_OP_reg0]

$C$DW$391	.dwtag  DW_TAG_variable
	.dwattr $C$DW$391, DW_AT_name("pt")
	.dwattr $C$DW$391, DW_AT_TI_symbol_name("_pt")
	.dwattr $C$DW$391, DW_AT_type(*$C$DW$T$36)
	.dwattr $C$DW$391, DW_AT_location[DW_OP_breg20 -68]

$C$DW$392	.dwtag  DW_TAG_variable
	.dwattr $C$DW$392, DW_AT_name("pt")
	.dwattr $C$DW$392, DW_AT_TI_symbol_name("_pt")
	.dwattr $C$DW$392, DW_AT_type(*$C$DW$T$36)
	.dwattr $C$DW$392, DW_AT_location[DW_OP_breg20 -68]

;* AL    assigned to _pt
$C$DW$393	.dwtag  DW_TAG_variable
	.dwattr $C$DW$393, DW_AT_name("pt")
	.dwattr $C$DW$393, DW_AT_TI_symbol_name("_pt")
	.dwattr $C$DW$393, DW_AT_type(*$C$DW$T$36)
	.dwattr $C$DW$393, DW_AT_location[DW_OP_reg0]

;* AR4   assigned to _pt
$C$DW$394	.dwtag  DW_TAG_variable
	.dwattr $C$DW$394, DW_AT_name("pt")
	.dwattr $C$DW$394, DW_AT_TI_symbol_name("_pt")
	.dwattr $C$DW$394, DW_AT_type(*$C$DW$T$36)
	.dwattr $C$DW$394, DW_AT_location[DW_OP_reg12]

;* AR4   assigned to _pt
$C$DW$395	.dwtag  DW_TAG_variable
	.dwattr $C$DW$395, DW_AT_name("pt")
	.dwattr $C$DW$395, DW_AT_TI_symbol_name("_pt")
	.dwattr $C$DW$395, DW_AT_type(*$C$DW$T$36)
	.dwattr $C$DW$395, DW_AT_location[DW_OP_reg12]

$C$DW$396	.dwtag  DW_TAG_variable
	.dwattr $C$DW$396, DW_AT_name("pt")
	.dwattr $C$DW$396, DW_AT_TI_symbol_name("_pt")
	.dwattr $C$DW$396, DW_AT_type(*$C$DW$T$36)
	.dwattr $C$DW$396, DW_AT_location[DW_OP_breg20 -55]

;* AR6   assigned to _pt
$C$DW$397	.dwtag  DW_TAG_variable
	.dwattr $C$DW$397, DW_AT_name("pt")
	.dwattr $C$DW$397, DW_AT_TI_symbol_name("_pt")
	.dwattr $C$DW$397, DW_AT_type(*$C$DW$T$36)
	.dwattr $C$DW$397, DW_AT_location[DW_OP_reg16]

;* AR4   assigned to _wtp
$C$DW$398	.dwtag  DW_TAG_variable
	.dwattr $C$DW$398, DW_AT_name("wtp")
	.dwattr $C$DW$398, DW_AT_TI_symbol_name("_wtp")
	.dwattr $C$DW$398, DW_AT_type(*$C$DW$T$122)
	.dwattr $C$DW$398, DW_AT_location[DW_OP_reg12]

;* AR4   assigned to _wtp
$C$DW$399	.dwtag  DW_TAG_variable
	.dwattr $C$DW$399, DW_AT_name("wtp")
	.dwattr $C$DW$399, DW_AT_TI_symbol_name("_wtp")
	.dwattr $C$DW$399, DW_AT_type(*$C$DW$T$122)
	.dwattr $C$DW$399, DW_AT_location[DW_OP_reg12]

;* AR4   assigned to _wtp
$C$DW$400	.dwtag  DW_TAG_variable
	.dwattr $C$DW$400, DW_AT_name("wtp")
	.dwattr $C$DW$400, DW_AT_TI_symbol_name("_wtp")
	.dwattr $C$DW$400, DW_AT_type(*$C$DW$T$122)
	.dwattr $C$DW$400, DW_AT_location[DW_OP_reg12]

;* AR4   assigned to _wtp
$C$DW$401	.dwtag  DW_TAG_variable
	.dwattr $C$DW$401, DW_AT_name("wtp")
	.dwattr $C$DW$401, DW_AT_TI_symbol_name("_wtp")
	.dwattr $C$DW$401, DW_AT_type(*$C$DW$T$122)
	.dwattr $C$DW$401, DW_AT_location[DW_OP_reg12]

$C$DW$402	.dwtag  DW_TAG_variable
	.dwattr $C$DW$402, DW_AT_name("cmdlen")
	.dwattr $C$DW$402, DW_AT_TI_symbol_name("_cmdlen")
	.dwattr $C$DW$402, DW_AT_type(*$C$DW$T$36)
	.dwattr $C$DW$402, DW_AT_location[DW_OP_breg20 -68]

;* AL    assigned to _cmdlen
$C$DW$403	.dwtag  DW_TAG_variable
	.dwattr $C$DW$403, DW_AT_name("cmdlen")
	.dwattr $C$DW$403, DW_AT_TI_symbol_name("_cmdlen")
	.dwattr $C$DW$403, DW_AT_type(*$C$DW$T$36)
	.dwattr $C$DW$403, DW_AT_location[DW_OP_reg0]

$C$DW$404	.dwtag  DW_TAG_variable
	.dwattr $C$DW$404, DW_AT_name("cmdlen")
	.dwattr $C$DW$404, DW_AT_TI_symbol_name("_cmdlen")
	.dwattr $C$DW$404, DW_AT_type(*$C$DW$T$36)
	.dwattr $C$DW$404, DW_AT_location[DW_OP_breg20 -55]

$C$DW$405	.dwtag  DW_TAG_variable
	.dwattr $C$DW$405, DW_AT_name("cmdlen")
	.dwattr $C$DW$405, DW_AT_TI_symbol_name("_cmdlen")
	.dwattr $C$DW$405, DW_AT_type(*$C$DW$T$36)
	.dwattr $C$DW$405, DW_AT_location[DW_OP_breg20 -55]

;* AR6   assigned to _cmdlen
$C$DW$406	.dwtag  DW_TAG_variable
	.dwattr $C$DW$406, DW_AT_name("cmdlen")
	.dwattr $C$DW$406, DW_AT_TI_symbol_name("_cmdlen")
	.dwattr $C$DW$406, DW_AT_type(*$C$DW$T$36)
	.dwattr $C$DW$406, DW_AT_location[DW_OP_reg16]

;* AL    assigned to _cmdlen
$C$DW$407	.dwtag  DW_TAG_variable
	.dwattr $C$DW$407, DW_AT_name("cmdlen")
	.dwattr $C$DW$407, DW_AT_TI_symbol_name("_cmdlen")
	.dwattr $C$DW$407, DW_AT_type(*$C$DW$T$36)
	.dwattr $C$DW$407, DW_AT_location[DW_OP_reg0]

;* AL    assigned to _cmdlen
$C$DW$408	.dwtag  DW_TAG_variable
	.dwattr $C$DW$408, DW_AT_name("cmdlen")
	.dwattr $C$DW$408, DW_AT_TI_symbol_name("_cmdlen")
	.dwattr $C$DW$408, DW_AT_type(*$C$DW$T$36)
	.dwattr $C$DW$408, DW_AT_location[DW_OP_reg0]

$C$DW$409	.dwtag  DW_TAG_variable
	.dwattr $C$DW$409, DW_AT_name("k")
	.dwattr $C$DW$409, DW_AT_TI_symbol_name("_k")
	.dwattr $C$DW$409, DW_AT_type(*$C$DW$T$10)
	.dwattr $C$DW$409, DW_AT_location[DW_OP_breg20 -68]

$C$DW$410	.dwtag  DW_TAG_variable
	.dwattr $C$DW$410, DW_AT_name("k")
	.dwattr $C$DW$410, DW_AT_TI_symbol_name("_k")
	.dwattr $C$DW$410, DW_AT_type(*$C$DW$T$10)
	.dwattr $C$DW$410, DW_AT_location[DW_OP_breg20 -69]

$C$DW$411	.dwtag  DW_TAG_variable
	.dwattr $C$DW$411, DW_AT_name("k")
	.dwattr $C$DW$411, DW_AT_TI_symbol_name("_k")
	.dwattr $C$DW$411, DW_AT_type(*$C$DW$T$10)
	.dwattr $C$DW$411, DW_AT_location[DW_OP_breg20 -69]

$C$DW$412	.dwtag  DW_TAG_variable
	.dwattr $C$DW$412, DW_AT_name("k")
	.dwattr $C$DW$412, DW_AT_TI_symbol_name("_k")
	.dwattr $C$DW$412, DW_AT_type(*$C$DW$T$10)
	.dwattr $C$DW$412, DW_AT_location[DW_OP_breg20 -55]

;* AR6   assigned to _k
$C$DW$413	.dwtag  DW_TAG_variable
	.dwattr $C$DW$413, DW_AT_name("k")
	.dwattr $C$DW$413, DW_AT_TI_symbol_name("_k")
	.dwattr $C$DW$413, DW_AT_type(*$C$DW$T$10)
	.dwattr $C$DW$413, DW_AT_location[DW_OP_reg16]

$C$DW$414	.dwtag  DW_TAG_variable
	.dwattr $C$DW$414, DW_AT_name("k")
	.dwattr $C$DW$414, DW_AT_TI_symbol_name("_k")
	.dwattr $C$DW$414, DW_AT_type(*$C$DW$T$10)
	.dwattr $C$DW$414, DW_AT_location[DW_OP_breg20 -68]

$C$DW$415	.dwtag  DW_TAG_variable
	.dwattr $C$DW$415, DW_AT_name("k")
	.dwattr $C$DW$415, DW_AT_TI_symbol_name("_k")
	.dwattr $C$DW$415, DW_AT_type(*$C$DW$T$10)
	.dwattr $C$DW$415, DW_AT_location[DW_OP_breg20 -55]

;* PL    assigned to _k
$C$DW$416	.dwtag  DW_TAG_variable
	.dwattr $C$DW$416, DW_AT_name("k")
	.dwattr $C$DW$416, DW_AT_TI_symbol_name("_k")
	.dwattr $C$DW$416, DW_AT_type(*$C$DW$T$10)
	.dwattr $C$DW$416, DW_AT_location[DW_OP_reg2]

$C$DW$417	.dwtag  DW_TAG_variable
	.dwattr $C$DW$417, DW_AT_name("k")
	.dwattr $C$DW$417, DW_AT_TI_symbol_name("_k")
	.dwattr $C$DW$417, DW_AT_type(*$C$DW$T$10)
	.dwattr $C$DW$417, DW_AT_location[DW_OP_breg20 -55]

;* PL    assigned to _k
$C$DW$418	.dwtag  DW_TAG_variable
	.dwattr $C$DW$418, DW_AT_name("k")
	.dwattr $C$DW$418, DW_AT_TI_symbol_name("_k")
	.dwattr $C$DW$418, DW_AT_type(*$C$DW$T$10)
	.dwattr $C$DW$418, DW_AT_location[DW_OP_reg2]

;* AR5   assigned to _k
$C$DW$419	.dwtag  DW_TAG_variable
	.dwattr $C$DW$419, DW_AT_name("k")
	.dwattr $C$DW$419, DW_AT_TI_symbol_name("_k")
	.dwattr $C$DW$419, DW_AT_type(*$C$DW$T$10)
	.dwattr $C$DW$419, DW_AT_location[DW_OP_reg14]

;* AR3   assigned to _j
$C$DW$420	.dwtag  DW_TAG_variable
	.dwattr $C$DW$420, DW_AT_name("j")
	.dwattr $C$DW$420, DW_AT_TI_symbol_name("_j")
	.dwattr $C$DW$420, DW_AT_type(*$C$DW$T$10)
	.dwattr $C$DW$420, DW_AT_location[DW_OP_reg10]

$C$DW$421	.dwtag  DW_TAG_variable
	.dwattr $C$DW$421, DW_AT_name("j")
	.dwattr $C$DW$421, DW_AT_TI_symbol_name("_j")
	.dwattr $C$DW$421, DW_AT_type(*$C$DW$T$10)
	.dwattr $C$DW$421, DW_AT_location[DW_OP_breg20 -55]

$C$DW$422	.dwtag  DW_TAG_variable
	.dwattr $C$DW$422, DW_AT_name("j")
	.dwattr $C$DW$422, DW_AT_TI_symbol_name("_j")
	.dwattr $C$DW$422, DW_AT_type(*$C$DW$T$10)
	.dwattr $C$DW$422, DW_AT_location[DW_OP_breg20 -55]

$C$DW$423	.dwtag  DW_TAG_variable
	.dwattr $C$DW$423, DW_AT_name("j")
	.dwattr $C$DW$423, DW_AT_TI_symbol_name("_j")
	.dwattr $C$DW$423, DW_AT_type(*$C$DW$T$10)
	.dwattr $C$DW$423, DW_AT_location[DW_OP_breg20 -55]

;* AR1   assigned to _j
$C$DW$424	.dwtag  DW_TAG_variable
	.dwattr $C$DW$424, DW_AT_name("j")
	.dwattr $C$DW$424, DW_AT_TI_symbol_name("_j")
	.dwattr $C$DW$424, DW_AT_type(*$C$DW$T$10)
	.dwattr $C$DW$424, DW_AT_location[DW_OP_reg6]

$C$DW$425	.dwtag  DW_TAG_variable
	.dwattr $C$DW$425, DW_AT_name("j")
	.dwattr $C$DW$425, DW_AT_TI_symbol_name("_j")
	.dwattr $C$DW$425, DW_AT_type(*$C$DW$T$10)
	.dwattr $C$DW$425, DW_AT_location[DW_OP_breg20 -55]

$C$DW$426	.dwtag  DW_TAG_variable
	.dwattr $C$DW$426, DW_AT_name("j")
	.dwattr $C$DW$426, DW_AT_TI_symbol_name("_j")
	.dwattr $C$DW$426, DW_AT_type(*$C$DW$T$10)
	.dwattr $C$DW$426, DW_AT_location[DW_OP_breg20 -55]

$C$DW$427	.dwtag  DW_TAG_variable
	.dwattr $C$DW$427, DW_AT_name("j")
	.dwattr $C$DW$427, DW_AT_TI_symbol_name("_j")
	.dwattr $C$DW$427, DW_AT_type(*$C$DW$T$10)
	.dwattr $C$DW$427, DW_AT_location[DW_OP_breg20 -55]

$C$DW$428	.dwtag  DW_TAG_variable
	.dwattr $C$DW$428, DW_AT_name("j")
	.dwattr $C$DW$428, DW_AT_TI_symbol_name("_j")
	.dwattr $C$DW$428, DW_AT_type(*$C$DW$T$10)
	.dwattr $C$DW$428, DW_AT_location[DW_OP_breg20 -55]

$C$DW$429	.dwtag  DW_TAG_variable
	.dwattr $C$DW$429, DW_AT_name("j")
	.dwattr $C$DW$429, DW_AT_TI_symbol_name("_j")
	.dwattr $C$DW$429, DW_AT_type(*$C$DW$T$10)
	.dwattr $C$DW$429, DW_AT_location[DW_OP_breg20 -69]

$C$DW$430	.dwtag  DW_TAG_variable
	.dwattr $C$DW$430, DW_AT_name("j")
	.dwattr $C$DW$430, DW_AT_TI_symbol_name("_j")
	.dwattr $C$DW$430, DW_AT_type(*$C$DW$T$10)
	.dwattr $C$DW$430, DW_AT_location[DW_OP_breg20 -69]

$C$DW$431	.dwtag  DW_TAG_variable
	.dwattr $C$DW$431, DW_AT_name("j")
	.dwattr $C$DW$431, DW_AT_TI_symbol_name("_j")
	.dwattr $C$DW$431, DW_AT_type(*$C$DW$T$10)
	.dwattr $C$DW$431, DW_AT_location[DW_OP_breg20 -55]

$C$DW$432	.dwtag  DW_TAG_variable
	.dwattr $C$DW$432, DW_AT_name("j")
	.dwattr $C$DW$432, DW_AT_TI_symbol_name("_j")
	.dwattr $C$DW$432, DW_AT_type(*$C$DW$T$10)
	.dwattr $C$DW$432, DW_AT_location[DW_OP_breg20 -68]

$C$DW$433	.dwtag  DW_TAG_variable
	.dwattr $C$DW$433, DW_AT_name("j")
	.dwattr $C$DW$433, DW_AT_TI_symbol_name("_j")
	.dwattr $C$DW$433, DW_AT_type(*$C$DW$T$10)
	.dwattr $C$DW$433, DW_AT_location[DW_OP_breg20 -70]

$C$DW$434	.dwtag  DW_TAG_variable
	.dwattr $C$DW$434, DW_AT_name("j")
	.dwattr $C$DW$434, DW_AT_TI_symbol_name("_j")
	.dwattr $C$DW$434, DW_AT_type(*$C$DW$T$10)
	.dwattr $C$DW$434, DW_AT_location[DW_OP_breg20 -56]

$C$DW$435	.dwtag  DW_TAG_variable
	.dwattr $C$DW$435, DW_AT_name("j")
	.dwattr $C$DW$435, DW_AT_TI_symbol_name("_j")
	.dwattr $C$DW$435, DW_AT_type(*$C$DW$T$10)
	.dwattr $C$DW$435, DW_AT_location[DW_OP_breg20 -56]

$C$DW$436	.dwtag  DW_TAG_variable
	.dwattr $C$DW$436, DW_AT_name("j")
	.dwattr $C$DW$436, DW_AT_TI_symbol_name("_j")
	.dwattr $C$DW$436, DW_AT_type(*$C$DW$T$10)
	.dwattr $C$DW$436, DW_AT_location[DW_OP_breg20 -56]

$C$DW$437	.dwtag  DW_TAG_variable
	.dwattr $C$DW$437, DW_AT_name("j")
	.dwattr $C$DW$437, DW_AT_TI_symbol_name("_j")
	.dwattr $C$DW$437, DW_AT_type(*$C$DW$T$10)
	.dwattr $C$DW$437, DW_AT_location[DW_OP_breg20 -56]

$C$DW$438	.dwtag  DW_TAG_variable
	.dwattr $C$DW$438, DW_AT_name("j")
	.dwattr $C$DW$438, DW_AT_TI_symbol_name("_j")
	.dwattr $C$DW$438, DW_AT_type(*$C$DW$T$10)
	.dwattr $C$DW$438, DW_AT_location[DW_OP_breg20 -56]

$C$DW$439	.dwtag  DW_TAG_variable
	.dwattr $C$DW$439, DW_AT_name("j")
	.dwattr $C$DW$439, DW_AT_TI_symbol_name("_j")
	.dwattr $C$DW$439, DW_AT_type(*$C$DW$T$10)
	.dwattr $C$DW$439, DW_AT_location[DW_OP_breg20 -56]

$C$DW$440	.dwtag  DW_TAG_variable
	.dwattr $C$DW$440, DW_AT_name("j")
	.dwattr $C$DW$440, DW_AT_TI_symbol_name("_j")
	.dwattr $C$DW$440, DW_AT_type(*$C$DW$T$10)
	.dwattr $C$DW$440, DW_AT_location[DW_OP_breg20 -55]

$C$DW$441	.dwtag  DW_TAG_variable
	.dwattr $C$DW$441, DW_AT_name("j")
	.dwattr $C$DW$441, DW_AT_TI_symbol_name("_j")
	.dwattr $C$DW$441, DW_AT_type(*$C$DW$T$10)
	.dwattr $C$DW$441, DW_AT_location[DW_OP_breg20 -70]

;* AR1   assigned to _i
$C$DW$442	.dwtag  DW_TAG_variable
	.dwattr $C$DW$442, DW_AT_name("i")
	.dwattr $C$DW$442, DW_AT_TI_symbol_name("_i")
	.dwattr $C$DW$442, DW_AT_type(*$C$DW$T$10)
	.dwattr $C$DW$442, DW_AT_location[DW_OP_reg6]

;* AR1   assigned to _i
$C$DW$443	.dwtag  DW_TAG_variable
	.dwattr $C$DW$443, DW_AT_name("i")
	.dwattr $C$DW$443, DW_AT_TI_symbol_name("_i")
	.dwattr $C$DW$443, DW_AT_type(*$C$DW$T$10)
	.dwattr $C$DW$443, DW_AT_location[DW_OP_reg6]

;* AL    assigned to _i
$C$DW$444	.dwtag  DW_TAG_variable
	.dwattr $C$DW$444, DW_AT_name("i")
	.dwattr $C$DW$444, DW_AT_TI_symbol_name("_i")
	.dwattr $C$DW$444, DW_AT_type(*$C$DW$T$10)
	.dwattr $C$DW$444, DW_AT_location[DW_OP_reg0]

$C$DW$445	.dwtag  DW_TAG_variable
	.dwattr $C$DW$445, DW_AT_name("i")
	.dwattr $C$DW$445, DW_AT_TI_symbol_name("_i")
	.dwattr $C$DW$445, DW_AT_type(*$C$DW$T$10)
	.dwattr $C$DW$445, DW_AT_location[DW_OP_breg20 -55]

;* AR7   assigned to _i
$C$DW$446	.dwtag  DW_TAG_variable
	.dwattr $C$DW$446, DW_AT_name("i")
	.dwattr $C$DW$446, DW_AT_TI_symbol_name("_i")
	.dwattr $C$DW$446, DW_AT_type(*$C$DW$T$10)
	.dwattr $C$DW$446, DW_AT_location[DW_OP_reg18]

;* AR7   assigned to _i
$C$DW$447	.dwtag  DW_TAG_variable
	.dwattr $C$DW$447, DW_AT_name("i")
	.dwattr $C$DW$447, DW_AT_TI_symbol_name("_i")
	.dwattr $C$DW$447, DW_AT_type(*$C$DW$T$10)
	.dwattr $C$DW$447, DW_AT_location[DW_OP_reg18]

;* AR7   assigned to _i
$C$DW$448	.dwtag  DW_TAG_variable
	.dwattr $C$DW$448, DW_AT_name("i")
	.dwattr $C$DW$448, DW_AT_TI_symbol_name("_i")
	.dwattr $C$DW$448, DW_AT_type(*$C$DW$T$10)
	.dwattr $C$DW$448, DW_AT_location[DW_OP_reg18]

$C$DW$449	.dwtag  DW_TAG_variable
	.dwattr $C$DW$449, DW_AT_name("i")
	.dwattr $C$DW$449, DW_AT_TI_symbol_name("_i")
	.dwattr $C$DW$449, DW_AT_type(*$C$DW$T$10)
	.dwattr $C$DW$449, DW_AT_location[DW_OP_breg20 -55]

;* AL    assigned to _i
$C$DW$450	.dwtag  DW_TAG_variable
	.dwattr $C$DW$450, DW_AT_name("i")
	.dwattr $C$DW$450, DW_AT_TI_symbol_name("_i")
	.dwattr $C$DW$450, DW_AT_type(*$C$DW$T$10)
	.dwattr $C$DW$450, DW_AT_location[DW_OP_reg0]

;* AR4   assigned to _i
$C$DW$451	.dwtag  DW_TAG_variable
	.dwattr $C$DW$451, DW_AT_name("i")
	.dwattr $C$DW$451, DW_AT_TI_symbol_name("_i")
	.dwattr $C$DW$451, DW_AT_type(*$C$DW$T$10)
	.dwattr $C$DW$451, DW_AT_location[DW_OP_reg12]

;* AL    assigned to _i
$C$DW$452	.dwtag  DW_TAG_variable
	.dwattr $C$DW$452, DW_AT_name("i")
	.dwattr $C$DW$452, DW_AT_TI_symbol_name("_i")
	.dwattr $C$DW$452, DW_AT_type(*$C$DW$T$10)
	.dwattr $C$DW$452, DW_AT_location[DW_OP_reg0]

;* AL    assigned to _i
$C$DW$453	.dwtag  DW_TAG_variable
	.dwattr $C$DW$453, DW_AT_name("i")
	.dwattr $C$DW$453, DW_AT_TI_symbol_name("_i")
	.dwattr $C$DW$453, DW_AT_type(*$C$DW$T$10)
	.dwattr $C$DW$453, DW_AT_location[DW_OP_reg0]

$C$DW$454	.dwtag  DW_TAG_variable
	.dwattr $C$DW$454, DW_AT_name("i")
	.dwattr $C$DW$454, DW_AT_TI_symbol_name("_i")
	.dwattr $C$DW$454, DW_AT_type(*$C$DW$T$10)
	.dwattr $C$DW$454, DW_AT_location[DW_OP_breg20 -55]

$C$DW$455	.dwtag  DW_TAG_variable
	.dwattr $C$DW$455, DW_AT_name("i")
	.dwattr $C$DW$455, DW_AT_TI_symbol_name("_i")
	.dwattr $C$DW$455, DW_AT_type(*$C$DW$T$10)
	.dwattr $C$DW$455, DW_AT_location[DW_OP_breg20 -55]

$C$DW$456	.dwtag  DW_TAG_variable
	.dwattr $C$DW$456, DW_AT_name("i")
	.dwattr $C$DW$456, DW_AT_TI_symbol_name("_i")
	.dwattr $C$DW$456, DW_AT_type(*$C$DW$T$10)
	.dwattr $C$DW$456, DW_AT_location[DW_OP_breg20 -56]

;* AL    assigned to _i
$C$DW$457	.dwtag  DW_TAG_variable
	.dwattr $C$DW$457, DW_AT_name("i")
	.dwattr $C$DW$457, DW_AT_TI_symbol_name("_i")
	.dwattr $C$DW$457, DW_AT_type(*$C$DW$T$10)
	.dwattr $C$DW$457, DW_AT_location[DW_OP_reg0]

;* AL    assigned to _i
$C$DW$458	.dwtag  DW_TAG_variable
	.dwattr $C$DW$458, DW_AT_name("i")
	.dwattr $C$DW$458, DW_AT_TI_symbol_name("_i")
	.dwattr $C$DW$458, DW_AT_type(*$C$DW$T$10)
	.dwattr $C$DW$458, DW_AT_location[DW_OP_reg0]

;* AH    assigned to _i
$C$DW$459	.dwtag  DW_TAG_variable
	.dwattr $C$DW$459, DW_AT_name("i")
	.dwattr $C$DW$459, DW_AT_TI_symbol_name("_i")
	.dwattr $C$DW$459, DW_AT_type(*$C$DW$T$10)
	.dwattr $C$DW$459, DW_AT_location[DW_OP_reg1]

;* AH    assigned to _i
$C$DW$460	.dwtag  DW_TAG_variable
	.dwattr $C$DW$460, DW_AT_name("i")
	.dwattr $C$DW$460, DW_AT_TI_symbol_name("_i")
	.dwattr $C$DW$460, DW_AT_type(*$C$DW$T$10)
	.dwattr $C$DW$460, DW_AT_location[DW_OP_reg1]

;* AR5   assigned to _i
$C$DW$461	.dwtag  DW_TAG_variable
	.dwattr $C$DW$461, DW_AT_name("i")
	.dwattr $C$DW$461, DW_AT_TI_symbol_name("_i")
	.dwattr $C$DW$461, DW_AT_type(*$C$DW$T$10)
	.dwattr $C$DW$461, DW_AT_location[DW_OP_reg14]

;* AR5   assigned to _i
$C$DW$462	.dwtag  DW_TAG_variable
	.dwattr $C$DW$462, DW_AT_name("i")
	.dwattr $C$DW$462, DW_AT_TI_symbol_name("_i")
	.dwattr $C$DW$462, DW_AT_type(*$C$DW$T$10)
	.dwattr $C$DW$462, DW_AT_location[DW_OP_reg14]

;* AH    assigned to _i
$C$DW$463	.dwtag  DW_TAG_variable
	.dwattr $C$DW$463, DW_AT_name("i")
	.dwattr $C$DW$463, DW_AT_TI_symbol_name("_i")
	.dwattr $C$DW$463, DW_AT_type(*$C$DW$T$10)
	.dwattr $C$DW$463, DW_AT_location[DW_OP_reg1]

;* AR5   assigned to _i
$C$DW$464	.dwtag  DW_TAG_variable
	.dwattr $C$DW$464, DW_AT_name("i")
	.dwattr $C$DW$464, DW_AT_TI_symbol_name("_i")
	.dwattr $C$DW$464, DW_AT_type(*$C$DW$T$10)
	.dwattr $C$DW$464, DW_AT_location[DW_OP_reg14]

;* AR6   assigned to _i
$C$DW$465	.dwtag  DW_TAG_variable
	.dwattr $C$DW$465, DW_AT_name("i")
	.dwattr $C$DW$465, DW_AT_TI_symbol_name("_i")
	.dwattr $C$DW$465, DW_AT_type(*$C$DW$T$10)
	.dwattr $C$DW$465, DW_AT_location[DW_OP_reg16]

;* AR1   assigned to _i
$C$DW$466	.dwtag  DW_TAG_variable
	.dwattr $C$DW$466, DW_AT_name("i")
	.dwattr $C$DW$466, DW_AT_TI_symbol_name("_i")
	.dwattr $C$DW$466, DW_AT_type(*$C$DW$T$10)
	.dwattr $C$DW$466, DW_AT_location[DW_OP_reg6]

;* AH    assigned to _i
$C$DW$467	.dwtag  DW_TAG_variable
	.dwattr $C$DW$467, DW_AT_name("i")
	.dwattr $C$DW$467, DW_AT_TI_symbol_name("_i")
	.dwattr $C$DW$467, DW_AT_type(*$C$DW$T$10)
	.dwattr $C$DW$467, DW_AT_location[DW_OP_reg1]

;* AH    assigned to _i
$C$DW$468	.dwtag  DW_TAG_variable
	.dwattr $C$DW$468, DW_AT_name("i")
	.dwattr $C$DW$468, DW_AT_TI_symbol_name("_i")
	.dwattr $C$DW$468, DW_AT_type(*$C$DW$T$10)
	.dwattr $C$DW$468, DW_AT_location[DW_OP_reg1]

;* AR4   assigned to _i
$C$DW$469	.dwtag  DW_TAG_variable
	.dwattr $C$DW$469, DW_AT_name("i")
	.dwattr $C$DW$469, DW_AT_TI_symbol_name("_i")
	.dwattr $C$DW$469, DW_AT_type(*$C$DW$T$10)
	.dwattr $C$DW$469, DW_AT_location[DW_OP_reg12]

;* AR6   assigned to _i
$C$DW$470	.dwtag  DW_TAG_variable
	.dwattr $C$DW$470, DW_AT_name("i")
	.dwattr $C$DW$470, DW_AT_TI_symbol_name("_i")
	.dwattr $C$DW$470, DW_AT_type(*$C$DW$T$10)
	.dwattr $C$DW$470, DW_AT_location[DW_OP_reg16]

;* AR6   assigned to _i
$C$DW$471	.dwtag  DW_TAG_variable
	.dwattr $C$DW$471, DW_AT_name("i")
	.dwattr $C$DW$471, DW_AT_TI_symbol_name("_i")
	.dwattr $C$DW$471, DW_AT_type(*$C$DW$T$10)
	.dwattr $C$DW$471, DW_AT_location[DW_OP_reg16]

$C$DW$472	.dwtag  DW_TAG_variable
	.dwattr $C$DW$472, DW_AT_name("i")
	.dwattr $C$DW$472, DW_AT_TI_symbol_name("_i")
	.dwattr $C$DW$472, DW_AT_type(*$C$DW$T$10)
	.dwattr $C$DW$472, DW_AT_location[DW_OP_breg20 -55]

;* AR6   assigned to _i
$C$DW$473	.dwtag  DW_TAG_variable
	.dwattr $C$DW$473, DW_AT_name("i")
	.dwattr $C$DW$473, DW_AT_TI_symbol_name("_i")
	.dwattr $C$DW$473, DW_AT_type(*$C$DW$T$10)
	.dwattr $C$DW$473, DW_AT_location[DW_OP_reg16]

$C$DW$474	.dwtag  DW_TAG_variable
	.dwattr $C$DW$474, DW_AT_name("volt")
	.dwattr $C$DW$474, DW_AT_TI_symbol_name("_volt")
	.dwattr $C$DW$474, DW_AT_type(*$C$DW$T$371)
	.dwattr $C$DW$474, DW_AT_location[DW_OP_breg20 -24]

$C$DW$475	.dwtag  DW_TAG_variable
	.dwattr $C$DW$475, DW_AT_name("dsum")
	.dwattr $C$DW$475, DW_AT_TI_symbol_name("_dsum")
	.dwattr $C$DW$475, DW_AT_type(*$C$DW$T$352)
	.dwattr $C$DW$475, DW_AT_location[DW_OP_breg20 -32]

$C$DW$476	.dwtag  DW_TAG_variable
	.dwattr $C$DW$476, DW_AT_name("dacc")
	.dwattr $C$DW$476, DW_AT_TI_symbol_name("_dacc")
	.dwattr $C$DW$476, DW_AT_type(*$C$DW$T$304)
	.dwattr $C$DW$476, DW_AT_location[DW_OP_breg20 -35]

$C$DW$477	.dwtag  DW_TAG_variable
	.dwattr $C$DW$477, DW_AT_name("sampcnt")
	.dwattr $C$DW$477, DW_AT_TI_symbol_name("_sampcnt")
	.dwattr $C$DW$477, DW_AT_type(*$C$DW$T$333)
	.dwattr $C$DW$477, DW_AT_location[DW_OP_breg20 -38]

$C$DW$478	.dwtag  DW_TAG_variable
	.dwattr $C$DW$478, DW_AT_name("data")
	.dwattr $C$DW$478, DW_AT_TI_symbol_name("_data")
	.dwattr $C$DW$478, DW_AT_type(*$C$DW$T$306)
	.dwattr $C$DW$478, DW_AT_location[DW_OP_breg20 -46]

$C$DW$479	.dwtag  DW_TAG_variable
	.dwattr $C$DW$479, DW_AT_name("data2")
	.dwattr $C$DW$479, DW_AT_TI_symbol_name("_data2")
	.dwattr $C$DW$479, DW_AT_type(*$C$DW$T$306)
	.dwattr $C$DW$479, DW_AT_location[DW_OP_breg20 -54]

	.dwcfi	cfa_offset, -2
	.dwcfi	save_reg_to_mem, 26, 0
        MOVL      *SP++,XAR1            ; [CPU_] 
	.dwcfi	save_reg_to_mem, 7, 2
	.dwcfi	cfa_offset, -4
        MOVL      *SP++,XAR2            ; [CPU_] 
	.dwcfi	save_reg_to_mem, 9, 4
	.dwcfi	cfa_offset, -6
        MOVL      *SP++,XAR3            ; [CPU_] 
	.dwcfi	save_reg_to_mem, 11, 6
	.dwcfi	cfa_offset, -8
        MOVZ      AR2,SP                ; [CPU_] 
        SUBB      FP,#8                 ; [CPU_U] 
        ADD       SP,#152               ; [CPU_] 
	.dwcfi	cfa_offset, -160
	.dwpsn	file "../Source/prod.c",line 216,column 2,is_stmt,isa 0
;----------------------------------------------------------------------
; 216 | sys_init();                                                            
;----------------------------------------------------------------------
$C$DW$480	.dwtag  DW_TAG_TI_branch
	.dwattr $C$DW$480, DW_AT_low_pc(0x00)
	.dwattr $C$DW$480, DW_AT_name("_sys_init")
	.dwattr $C$DW$480, DW_AT_TI_call

        LCR       #_sys_init            ; [CPU_] |216| 
        ; call occurs [#_sys_init] ; [] |216| 
	.dwpsn	file "../Source/prod.c",line 218,column 2,is_stmt,isa 0
;----------------------------------------------------------------------
; 218 | delay_us(30000);                        // delay for 30 ms             
; 220 | // Clear all interrupts and initialize PIE vector table:               
; 221 | // Disable CPU interrupts                                              
; 222 | DINT;                                                                  
; 223 | // Initialize PIE control registers to their default state.            
; 224 | // The default state is all PIE interrupts disabled and flags are clear
;     | ed.                                                                    
; 225 | // This function is found in the DSP281x_PieCtrl.c file.               
;----------------------------------------------------------------------
        MOV       AL,#30000             ; [CPU_] |218| 
$C$DW$481	.dwtag  DW_TAG_TI_branch
	.dwattr $C$DW$481, DW_AT_low_pc(0x00)
	.dwattr $C$DW$481, DW_AT_name("_delay_us")
	.dwattr $C$DW$481, DW_AT_TI_call

        LCR       #_delay_us            ; [CPU_] |218| 
        ; call occurs [#_delay_us] ; [] |218| 
 setc INTM
        SPM       #0                    ; [CPU_] 
	.dwpsn	file "../Source/prod.c",line 226,column 2,is_stmt,isa 0
;----------------------------------------------------------------------
; 226 | InitPieCtrl();                                                         
; 227 | // Disable CPU interrupts and clear all CPU interrupt flags:           
;----------------------------------------------------------------------
$C$DW$482	.dwtag  DW_TAG_TI_branch
	.dwattr $C$DW$482, DW_AT_low_pc(0x00)
	.dwattr $C$DW$482, DW_AT_name("_InitPieCtrl")
	.dwattr $C$DW$482, DW_AT_TI_call

        LCR       #_InitPieCtrl         ; [CPU_] |226| 
        ; call occurs [#_InitPieCtrl] ; [] |226| 
	.dwpsn	file "../Source/prod.c",line 228,column 2,is_stmt,isa 0
;----------------------------------------------------------------------
; 228 | IER = 0x0000;                                                          
;----------------------------------------------------------------------
        AND       IER,#0x0000           ; [CPU_] |228| 
	.dwpsn	file "../Source/prod.c",line 229,column 2,is_stmt,isa 0
;----------------------------------------------------------------------
; 229 | IFR = 0x0000;                                                          
; 230 | // Initialize the PIE vector table with pointers to the shell Interrupt
; 231 | // Service Routines (ISR).                                             
; 232 | // This will populate the entire table, even if the interrupt          
; 233 | // is not used in this example.  This is useful for debug purposes.    
; 234 | // The shell ISR routines are found in DSP281x_DefaultIsr.c.           
; 235 | // This function is found in DSP281x_PieVect.c.                        
;----------------------------------------------------------------------
        AND       IFR,#0x0000           ; [CPU_] |229| 
	.dwpsn	file "../Source/prod.c",line 236,column 2,is_stmt,isa 0
;----------------------------------------------------------------------
; 236 | InitPieVectTable();                                                    
;----------------------------------------------------------------------
$C$DW$483	.dwtag  DW_TAG_TI_branch
	.dwattr $C$DW$483, DW_AT_low_pc(0x00)
	.dwattr $C$DW$483, DW_AT_name("_InitPieVectTable")
	.dwattr $C$DW$483, DW_AT_TI_call

        LCR       #_InitPieVectTable    ; [CPU_] |236| 
        ; call occurs [#_InitPieVectTable] ; [] |236| 
	.dwpsn	file "../Source/prod.c",line 238,column 2,is_stmt,isa 0
;----------------------------------------------------------------------
; 238 | gpio_init();                                                           
;----------------------------------------------------------------------
$C$DW$484	.dwtag  DW_TAG_TI_branch
	.dwattr $C$DW$484, DW_AT_low_pc(0x00)
	.dwattr $C$DW$484, DW_AT_name("_gpio_init")
	.dwattr $C$DW$484, DW_AT_TI_call

        LCR       #_gpio_init           ; [CPU_] |238| 
        ; call occurs [#_gpio_init] ; [] |238| 
	.dwpsn	file "../Source/prod.c",line 239,column 2,is_stmt,isa 0
;----------------------------------------------------------------------
; 239 | extio_init();                                                          
;----------------------------------------------------------------------
$C$DW$485	.dwtag  DW_TAG_TI_branch
	.dwattr $C$DW$485, DW_AT_low_pc(0x00)
	.dwattr $C$DW$485, DW_AT_name("_extio_init")
	.dwattr $C$DW$485, DW_AT_TI_call

        LCR       #_extio_init          ; [CPU_] |239| 
        ; call occurs [#_extio_init] ; [] |239| 
	.dwpsn	file "../Source/prod.c",line 240,column 2,is_stmt,isa 0
;----------------------------------------------------------------------
; 240 | InitECan();                                                            
;----------------------------------------------------------------------
$C$DW$486	.dwtag  DW_TAG_TI_branch
	.dwattr $C$DW$486, DW_AT_low_pc(0x00)
	.dwattr $C$DW$486, DW_AT_name("_InitECan")
	.dwattr $C$DW$486, DW_AT_TI_call

        LCR       #_InitECan            ; [CPU_] |240| 
        ; call occurs [#_InitECan] ; [] |240| 
	.dwpsn	file "../Source/prod.c",line 241,column 2,is_stmt,isa 0
;----------------------------------------------------------------------
; 241 | configCAN();                                                           
; 243 | // Set SD select output as appropriate (Usually high)                  
; 244 | //SFC_SELECT(1);                        // Set SD Card select line high
;     |  (disables card for SPI)                                               
; 257 | // Copy the Flash API functions to SARAM                               
;----------------------------------------------------------------------
$C$DW$487	.dwtag  DW_TAG_TI_branch
	.dwattr $C$DW$487, DW_AT_low_pc(0x00)
	.dwattr $C$DW$487, DW_AT_name("_configCAN")
	.dwattr $C$DW$487, DW_AT_TI_call

        LCR       #_configCAN           ; [CPU_] |241| 
        ; call occurs [#_configCAN] ; [] |241| 
	.dwpsn	file "../Source/prod.c",line 258,column 2,is_stmt,isa 0
;----------------------------------------------------------------------
; 258 | memcpy(&Flash28_API_RunStart, &Flash28_API_LoadStart,                  
; 259 |                 &Flash28_API_LoadEnd - &Flash28_API_LoadStart);        
; 261 | // Section secureRamFuncs contains user defined code that runs from CSM
;     |  secured RAM                                                           
;----------------------------------------------------------------------
        MOVL      XAR5,#_Flash28_API_LoadStart ; [CPU_U] |258| 
        MOVL      XAR4,#_Flash28_API_LoadEnd ; [CPU_U] |258| 
        MOVL      ACC,XAR5              ; [CPU_] |258| 
        SUBL      XAR4,ACC              ; [CPU_] |258| 
        MOVL      ACC,XAR4              ; [CPU_] |258| 
        MOVL      XAR4,#_Flash28_API_RunStart ; [CPU_U] |258| 
$C$DW$488	.dwtag  DW_TAG_TI_branch
	.dwattr $C$DW$488, DW_AT_low_pc(0x00)
	.dwattr $C$DW$488, DW_AT_name("_memcpy")
	.dwattr $C$DW$488, DW_AT_TI_call

        LCR       #_memcpy              ; [CPU_] |258| 
        ; call occurs [#_memcpy] ; [] |258| 
	.dwpsn	file "../Source/prod.c",line 262,column 2,is_stmt,isa 0
;----------------------------------------------------------------------
; 262 | memcpy(&secureRamFuncs_runstart, &secureRamFuncs_loadstart,            
; 263 |                 &secureRamFuncs_loadend - &secureRamFuncs_loadstart);  
;----------------------------------------------------------------------
        MOVL      XAR5,#_secureRamFuncs_loadstart ; [CPU_U] |262| 
        MOVL      XAR4,#_secureRamFuncs_loadend ; [CPU_U] |262| 
        MOVL      ACC,XAR5              ; [CPU_] |262| 
        SUBL      XAR4,ACC              ; [CPU_] |262| 
        MOVL      ACC,XAR4              ; [CPU_] |262| 
        MOVL      XAR4,#_secureRamFuncs_runstart ; [CPU_U] |262| 
$C$DW$489	.dwtag  DW_TAG_TI_branch
	.dwattr $C$DW$489, DW_AT_low_pc(0x00)
	.dwattr $C$DW$489, DW_AT_name("_memcpy")
	.dwattr $C$DW$489, DW_AT_TI_call

        LCR       #_memcpy              ; [CPU_] |262| 
        ; call occurs [#_memcpy] ; [] |262| 
	.dwpsn	file "../Source/prod.c",line 280,column 2,is_stmt,isa 0
;----------------------------------------------------------------------
; 280 | Flash_CPUScaleFactor = SCALE_FACTOR;                                   
;----------------------------------------------------------------------
        MOV       AL,#63963             ; [CPU_] |280| 
        MOV       AH,#479               ; [CPU_] |280| 
        MOVW      DP,#_Flash_CPUScaleFactor ; [CPU_U] 
        MOVL      @_Flash_CPUScaleFactor,ACC ; [CPU_] |280| 
        MOVW      DP,#_Flash_CallbackPtr ; [CPU_U] 
	.dwpsn	file "../Source/prod.c",line 290,column 2,is_stmt,isa 0
;----------------------------------------------------------------------
; 290 | Flash_CallbackPtr = NULL;                                              
; 292 | // Initialize the FLASH interface, run from ram so has to be after the
;     | mem cpy statement                                                      
;----------------------------------------------------------------------
        MOVB      ACC,#0                ; [CPU_] |290| 
        MOVL      @_Flash_CallbackPtr,ACC ; [CPU_] |290| 
	.dwpsn	file "../Source/prod.c",line 293,column 2,is_stmt,isa 0
;----------------------------------------------------------------------
; 293 | flash_init();                                                          
;----------------------------------------------------------------------
$C$DW$490	.dwtag  DW_TAG_TI_branch
	.dwattr $C$DW$490, DW_AT_low_pc(0x00)
	.dwattr $C$DW$490, DW_AT_name("_flash_init")
	.dwattr $C$DW$490, DW_AT_TI_call

        LCR       #_flash_init          ; [CPU_] |293| 
        ; call occurs [#_flash_init] ; [] |293| 
	.dwpsn	file "../Source/prod.c",line 295,column 2,is_stmt,isa 0
;----------------------------------------------------------------------
; 295 | led_init();                             // the two leds                
;----------------------------------------------------------------------
$C$DW$491	.dwtag  DW_TAG_TI_branch
	.dwattr $C$DW$491, DW_AT_low_pc(0x00)
	.dwattr $C$DW$491, DW_AT_name("_led_init")
	.dwattr $C$DW$491, DW_AT_TI_call

        LCR       #_led_init            ; [CPU_] |295| 
        ; call occurs [#_led_init] ; [] |295| 
	.dwpsn	file "../Source/prod.c",line 296,column 2,is_stmt,isa 0
;----------------------------------------------------------------------
; 296 | lcd_init();                             // lcd/vfd display             
; 298 | // ************  ADDED FOR IMPACT TESTER **********/                   
;----------------------------------------------------------------------
$C$DW$492	.dwtag  DW_TAG_TI_branch
	.dwattr $C$DW$492, DW_AT_low_pc(0x00)
	.dwattr $C$DW$492, DW_AT_name("_lcd_init")
	.dwattr $C$DW$492, DW_AT_TI_call

        LCR       #_lcd_init            ; [CPU_] |296| 
        ; call occurs [#_lcd_init] ; [] |296| 
	.dwpsn	file "../Source/prod.c",line 300,column 2,is_stmt,isa 0
;----------------------------------------------------------------------
; 300 | ssr_set(0, 0);                  // turn on electomagnet                
;----------------------------------------------------------------------
        MOVB      AL,#0                 ; [CPU_] |300| 
        MOVB      AH,#0                 ; [CPU_] |300| 
$C$DW$493	.dwtag  DW_TAG_TI_branch
	.dwattr $C$DW$493, DW_AT_low_pc(0x00)
	.dwattr $C$DW$493, DW_AT_name("_ssr_set")
	.dwattr $C$DW$493, DW_AT_TI_call

        LCR       #_ssr_set             ; [CPU_] |300| 
        ; call occurs [#_ssr_set] ; [] |300| 
	.dwpsn	file "../Source/prod.c",line 301,column 2,is_stmt,isa 0
;----------------------------------------------------------------------
; 301 | ssr_set(1, 0);                  // turn off jog up                     
;----------------------------------------------------------------------
        MOVB      AL,#1                 ; [CPU_] |301| 
        MOVB      AH,#0                 ; [CPU_] |301| 
$C$DW$494	.dwtag  DW_TAG_TI_branch
	.dwattr $C$DW$494, DW_AT_low_pc(0x00)
	.dwattr $C$DW$494, DW_AT_name("_ssr_set")
	.dwattr $C$DW$494, DW_AT_TI_call

        LCR       #_ssr_set             ; [CPU_] |301| 
        ; call occurs [#_ssr_set] ; [] |301| 
	.dwpsn	file "../Source/prod.c",line 302,column 2,is_stmt,isa 0
;----------------------------------------------------------------------
; 302 | ssr_set(2, 0);                  // turn off jog down                   
;----------------------------------------------------------------------
        MOVB      AL,#2                 ; [CPU_] |302| 
        MOVB      AH,#0                 ; [CPU_] |302| 
$C$DW$495	.dwtag  DW_TAG_TI_branch
	.dwattr $C$DW$495, DW_AT_low_pc(0x00)
	.dwattr $C$DW$495, DW_AT_name("_ssr_set")
	.dwattr $C$DW$495, DW_AT_TI_call

        LCR       #_ssr_set             ; [CPU_] |302| 
        ; call occurs [#_ssr_set] ; [] |302| 
	.dwpsn	file "../Source/prod.c",line 303,column 2,is_stmt,isa 0
;----------------------------------------------------------------------
; 303 | ssr_set(3, 0);                  // indicate gui not connected          
; 305 | // ************  (end) ADDED FOR IMPACT TESTER **********/             
;----------------------------------------------------------------------
        MOVB      AL,#3                 ; [CPU_] |303| 
        MOVB      AH,#0                 ; [CPU_] |303| 
$C$DW$496	.dwtag  DW_TAG_TI_branch
	.dwattr $C$DW$496, DW_AT_low_pc(0x00)
	.dwattr $C$DW$496, DW_AT_name("_ssr_set")
	.dwattr $C$DW$496, DW_AT_TI_call

        LCR       #_ssr_set             ; [CPU_] |303| 
        ; call occurs [#_ssr_set] ; [] |303| 
	.dwpsn	file "../Source/prod.c",line 318,column 2,is_stmt,isa 0
;----------------------------------------------------------------------
; 318 | conf_read();                            // read configuration data from
;     |  flash                                                                 
;----------------------------------------------------------------------
$C$DW$497	.dwtag  DW_TAG_TI_branch
	.dwattr $C$DW$497, DW_AT_low_pc(0x00)
	.dwattr $C$DW$497, DW_AT_name("_conf_read")
	.dwattr $C$DW$497, DW_AT_TI_call

        LCR       #_conf_read           ; [CPU_] |318| 
        ; call occurs [#_conf_read] ; [] |318| 
	.dwpsn	file "../Source/prod.c",line 319,column 2,is_stmt,isa 0
;----------------------------------------------------------------------
; 319 | if (conf_data.magic != MAGICWORD) {                                    
;----------------------------------------------------------------------
        MOV       AL,#21930             ; [CPU_] |319| 
        MOV       AH,#21930             ; [CPU_] |319| 
        MOVW      DP,#_conf_data+3220   ; [CPU_U] 
        CMPL      ACC,@_conf_data+3220  ; [CPU_] |319| 
        B         $C$L51,EQ             ; [CPU_] |319| 
        ; branchcc occurs ; [] |319| 
	.dwpsn	file "../Source/prod.c",line 320,column 3,is_stmt,isa 0
;----------------------------------------------------------------------
; 320 | conf_default();                 // flash not initialized, set default  
;----------------------------------------------------------------------
$C$DW$498	.dwtag  DW_TAG_TI_branch
	.dwattr $C$DW$498, DW_AT_low_pc(0x00)
	.dwattr $C$DW$498, DW_AT_name("_conf_default")
	.dwattr $C$DW$498, DW_AT_TI_call

        LCR       #_conf_default        ; [CPU_] |320| 
        ; call occurs [#_conf_default] ; [] |320| 
	.dwpsn	file "../Source/prod.c",line 321,column 3,is_stmt,isa 0
;----------------------------------------------------------------------
; 321 | flash_ret = conf_write();               // and write back              
;----------------------------------------------------------------------
$C$DW$499	.dwtag  DW_TAG_TI_branch
	.dwattr $C$DW$499, DW_AT_low_pc(0x00)
	.dwattr $C$DW$499, DW_AT_name("_conf_write")
	.dwattr $C$DW$499, DW_AT_TI_call

        LCR       #_conf_write          ; [CPU_] |321| 
        ; call occurs [#_conf_write] ; [] |321| 
$C$L51:    
	.dwpsn	file "../Source/prod.c",line 324,column 2,is_stmt,isa 0
;----------------------------------------------------------------------
; 324 | shunt_switch(0);                        // open the shunt switch       
;----------------------------------------------------------------------
        MOVB      AL,#0                 ; [CPU_] |324| 
$C$DW$500	.dwtag  DW_TAG_TI_branch
	.dwattr $C$DW$500, DW_AT_low_pc(0x00)
	.dwattr $C$DW$500, DW_AT_name("_shunt_switch")
	.dwattr $C$DW$500, DW_AT_TI_call

        LCR       #_shunt_switch        ; [CPU_] |324| 
        ; call occurs [#_shunt_switch] ; [] |324| 
	.dwpsn	file "../Source/prod.c",line 326,column 2,is_stmt,isa 0
;----------------------------------------------------------------------
; 326 | ad7738_init();                                                         
;----------------------------------------------------------------------
$C$DW$501	.dwtag  DW_TAG_TI_branch
	.dwattr $C$DW$501, DW_AT_low_pc(0x00)
	.dwattr $C$DW$501, DW_AT_name("_ad7738_init")
	.dwattr $C$DW$501, DW_AT_TI_call

        LCR       #_ad7738_init         ; [CPU_] |326| 
        ; call occurs [#_ad7738_init] ; [] |326| 
	.dwpsn	file "../Source/prod.c",line 327,column 2,is_stmt,isa 0
;----------------------------------------------------------------------
; 327 | ad7738_setcal();                                                       
; 329 | for (i = 0; i < CHS_MAX; i++) {                                        
;----------------------------------------------------------------------
$C$DW$502	.dwtag  DW_TAG_TI_branch
	.dwattr $C$DW$502, DW_AT_low_pc(0x00)
	.dwattr $C$DW$502, DW_AT_name("_ad7738_setcal")
	.dwattr $C$DW$502, DW_AT_TI_call

        LCR       #_ad7738_setcal       ; [CPU_] |327| 
        ; call occurs [#_ad7738_setcal] ; [] |327| 
        MOVL      XAR0,#80              ; [CPU_] 
        MOVB      XAR6,#3               ; [CPU_] 
        MOVL      XAR4,#_autoid         ; [CPU_U] 
        MOVL      XAR5,#_tagwasthere    ; [CPU_U] 
        MOVL      *+FP[AR0],XAR4        ; [CPU_] 
$C$L52:    
	.dwpsn	file "../Source/prod.c",line 330,column 3,is_stmt,isa 0
;----------------------------------------------------------------------
; 330 | autoid[i] = 0;                                                         
;----------------------------------------------------------------------
        MOV       *XAR4++,#0            ; [CPU_] |330| 
	.dwpsn	file "../Source/prod.c",line 331,column 3,is_stmt,isa 0
;----------------------------------------------------------------------
; 331 | tagwasthere[i] = 0;                                                    
; 333 | autoidchanged = 0;                                                     
;----------------------------------------------------------------------
        MOV       *XAR5++,#0            ; [CPU_] |331| 
	.dwpsn	file "../Source/prod.c",line 329,column 14,is_stmt,isa 0
        BANZ      $C$L52,AR6--          ; [CPU_] |329| 
        ; branchcc occurs ; [] |329| 
        MOVW      DP,#_autoidchanged    ; [CPU_U] 
	.dwpsn	file "../Source/prod.c",line 335,column 2,is_stmt,isa 0
;----------------------------------------------------------------------
; 335 | delay_us(20000);                        // 20ms                        
;----------------------------------------------------------------------
        MOV       AL,#20000             ; [CPU_] |335| 
	.dwpsn	file "../Source/prod.c",line 333,column 2,is_stmt,isa 0
        MOV       @_autoidchanged,#0    ; [CPU_] |333| 
	.dwpsn	file "../Source/prod.c",line 335,column 2,is_stmt,isa 0
$C$DW$503	.dwtag  DW_TAG_TI_branch
	.dwattr $C$DW$503, DW_AT_low_pc(0x00)
	.dwattr $C$DW$503, DW_AT_name("_delay_us")
	.dwattr $C$DW$503, DW_AT_TI_call

        LCR       #_delay_us            ; [CPU_] |335| 
        ; call occurs [#_delay_us] ; [] |335| 
	.dwpsn	file "../Source/prod.c",line 337,column 2,is_stmt,isa 0
;----------------------------------------------------------------------
; 337 | lcd_clear();                                                           
; 338 | version = VERSION;                                                     
;----------------------------------------------------------------------
$C$DW$504	.dwtag  DW_TAG_TI_branch
	.dwattr $C$DW$504, DW_AT_low_pc(0x00)
	.dwattr $C$DW$504, DW_AT_name("_lcd_clear")
	.dwattr $C$DW$504, DW_AT_TI_call

        LCR       #_lcd_clear           ; [CPU_] |337| 
        ; call occurs [#_lcd_clear] ; [] |337| 
	.dwpsn	file "../Source/prod.c",line 339,column 2,is_stmt,isa 0
;----------------------------------------------------------------------
; 339 | sprintf(buff, "Pro-D FW ver: %.2f", version);                          
;----------------------------------------------------------------------
        MOVL      XAR1,#_buff$1         ; [CPU_U] |339| 
	.dwpsn	file "../Source/prod.c",line 338,column 2,is_stmt,isa 0
        MOV       ACC,#32512 << 15      ; [CPU_] |338| 
	.dwpsn	file "../Source/prod.c",line 339,column 2,is_stmt,isa 0
        MOVL      XAR4,#$C$FSL59        ; [CPU_U] |339| 
        MOVL      XAR0,#44              ; [CPU_] |339| 
	.dwpsn	file "../Source/prod.c",line 338,column 2,is_stmt,isa 0
        MOVL      *-SP[18],ACC          ; [CPU_] |338| 
	.dwpsn	file "../Source/prod.c",line 339,column 2,is_stmt,isa 0
        MOVL      *-SP[2],XAR4          ; [CPU_] |339| 
        MOVL      *-SP[4],ACC           ; [CPU_] |339| 
        MOVL      XAR4,XAR1             ; [CPU_] |339| 
        MOVL      *+FP[AR0],XAR1        ; [CPU_] |339| 
$C$DW$505	.dwtag  DW_TAG_TI_branch
	.dwattr $C$DW$505, DW_AT_low_pc(0x00)
	.dwattr $C$DW$505, DW_AT_name("_sprintf")
	.dwattr $C$DW$505, DW_AT_TI_call

        LCR       #_sprintf             ; [CPU_] |339| 
        ; call occurs [#_sprintf] ; [] |339| 
	.dwpsn	file "../Source/prod.c",line 340,column 2,is_stmt,isa 0
;----------------------------------------------------------------------
; 340 | lcd_dputs(buff, 0);                                                    
;----------------------------------------------------------------------
        MOVB      AL,#0                 ; [CPU_] |340| 
        MOVL      XAR4,XAR1             ; [CPU_] |340| 
$C$DW$506	.dwtag  DW_TAG_TI_branch
	.dwattr $C$DW$506, DW_AT_low_pc(0x00)
	.dwattr $C$DW$506, DW_AT_name("_lcd_dputs")
	.dwattr $C$DW$506, DW_AT_TI_call

        LCR       #_lcd_dputs           ; [CPU_] |340| 
        ; call occurs [#_lcd_dputs] ; [] |340| 
	.dwpsn	file "../Source/prod.c",line 341,column 2,is_stmt,isa 0
;----------------------------------------------------------------------
